EXPORTS
	?makeInterface@AlfFlowLayoutManager@Alf@@UAEPAVIAlfInterfaceBase@2@ABUIfId@2@@Z @ 1 NONAME ; class Alf::IAlfInterfaceBase * Alf::AlfFlowLayoutManager::makeInterface(struct Alf::IfId const &)
	?isValueSet@AlfAttribute@Alf@@QBE_NXZ @ 2 NONAME ; bool Alf::AlfAttribute::isValueSet(void) const
	?getTargetValue@AlfAttribute@Alf@@QBEPAVAlfAttributeValueType@2@I@Z @ 3 NONAME ; class Alf::AlfAttributeValueType * Alf::AlfAttribute::getTargetValue(unsigned int) const
	??0AlfCurvePathLayoutAttributeSetter@Alf@@QAE@XZ @ 4 NONAME ; Alf::AlfCurvePathLayoutAttributeSetter::AlfCurvePathLayoutAttributeSetter(void)
	?setTime@AlfAttribute@Alf@@QAEXH@Z @ 5 NONAME ; void Alf::AlfAttribute::setTime(int)
	?replaceItem@AlfMap@Alf@@UAEXIPAVIAlfVariantType@2@@Z @ 6 NONAME ; void Alf::AlfMap::replaceItem(unsigned int, class Alf::IAlfVariantType *)
	?checkState@CAlfWidgetControl@Alf@@UBE_NI@Z @ 7 NONAME ; bool Alf::CAlfWidgetControl::checkState(unsigned int) const
	?getLayout@AlfLayoutManager@Alf@@UBEAAVCAlfLayout@@XZ @ 8 NONAME ; class CAlfLayout & Alf::AlfLayoutManager::getLayout(void) const
	?findEventHandler@CAlfWidgetControl@Alf@@UAEPAVIAlfWidgetEventHandler@2@ABVTAlfEvent@@@Z @ 9 NONAME ; class Alf::IAlfWidgetEventHandler * Alf::CAlfWidgetControl::findEventHandler(class TAlfEvent const &)
	?numContainerIndices@AlfModelOperation@Alf@@QBEHXZ @ 10 NONAME ; int Alf::AlfModelOperation::numContainerIndices(void) const
	??0AlfContainer@Alf@@QAE@XZ @ 11 NONAME ; Alf::AlfContainer::AlfContainer(void)
	?index@AlfModelOperation@Alf@@QBEHXZ @ 12 NONAME ; int Alf::AlfModelOperation::index(void) const
	?childRemoved@AlfLayoutManager@Alf@@UAEXPAVCAlfWidgetControl@2@@Z @ 13 NONAME ; void Alf::AlfLayoutManager::childRemoved(class Alf::CAlfWidgetControl *)
	?addCustomInput@AlfWidgetEventHandler@Alf@@QAEXH_NH@Z @ 14 NONAME ; void Alf::AlfWidgetEventHandler::addCustomInput(int, bool, int)
	?map@AlfMap@Alf@@UAEPAVIAlfMap@2@XZ @ 15 NONAME ; class Alf::IAlfMap * Alf::AlfMap::map(void)
	?setLayoutType@AlfVisualTemplate@Alf@@UAEXW4TAlfLayoutType@@@Z @ 16 NONAME ; void Alf::AlfVisualTemplate::setLayoutType(enum TAlfLayoutType)
	??1CAlfWidgetControl@Alf@@UAE@XZ @ 17 NONAME ; Alf::CAlfWidgetControl::~CAlfWidgetControl(void)
	?widgetCount@AlfWidget@Alf@@UBEHXZ @ 18 NONAME ; int Alf::AlfWidget::widgetCount(void) const
	?integer@AlfBranch@Alf@@UBEHXZ @ 19 NONAME ; int Alf::AlfBranch::integer(void) const
	?container@AlfBranch@Alf@@UAEPAVIAlfContainer@2@XZ @ 20 NONAME ; class Alf::IAlfContainer * Alf::AlfBranch::container(void)
	?setMappingFunctionId@AlfAttribute@Alf@@QAEXH@Z @ 21 NONAME ; void Alf::AlfAttribute::setMappingFunctionId(int)
	?removeItem@AlfMap@Alf@@UAEXI@Z @ 22 NONAME ; void Alf::AlfMap::removeItem(unsigned int)
	?handleFocusPrevious@CAlfWidgetControl@Alf@@IAE_NXZ @ 23 NONAME ; bool Alf::CAlfWidgetControl::handleFocusPrevious(void)
	?createAndSendCommands@AlfCommonVisualAttributeSetter@Alf@@UAEXAAVCAlfVisual@@PAVAlfAttributeContainer@2@PAV3@@Z @ 24 NONAME ; void Alf::AlfCommonVisualAttributeSetter::createAndSendCommands(class CAlfVisual &, class Alf::AlfAttributeContainer *, class CAlfVisual *)
	?set@AlfVariantType@Alf@@UAEXAAVIAlfVariantType@2@@Z @ 25 NONAME ; void Alf::AlfVariantType::set(class Alf::IAlfVariantType &)
	?parentElementDataId@CAlfWidgetControl@Alf@@UAEIABVIAlfElement@2@I@Z @ 26 NONAME ; unsigned int Alf::CAlfWidgetControl::parentElementDataId(class Alf::IAlfElement const &, unsigned int)
	?makeInterface@AlfLayoutManager@Alf@@UAEPAVIAlfInterfaceBase@2@ABUIfId@2@@Z @ 27 NONAME ; class Alf::IAlfInterfaceBase * Alf::AlfLayoutManager::makeInterface(struct Alf::IfId const &)
	?addPointerInput@AlfWidgetEventHandler@Alf@@QAEXPBD0W4WidgetPointerEvent@2@@Z @ 28 NONAME ; void Alf::AlfWidgetEventHandler::addPointerInput(char const *, char const *, enum Alf::WidgetPointerEvent)
	?item@AlfMap@Alf@@UAEPAVIAlfVariantType@2@ABVUString@osncore@@@Z @ 29 NONAME ; class Alf::IAlfVariantType * Alf::AlfMap::item(class osncore::UString const &)
	?branch@AlfMap@Alf@@UAEPAVIAlfBranch@2@XZ @ 30 NONAME ; class Alf::IAlfBranch * Alf::AlfMap::branch(void)
	?removeElement@CAlfWidgetControl@Alf@@UAEXABVIAlfElement@2@@Z @ 31 NONAME ; void Alf::CAlfWidgetControl::removeElement(class Alf::IAlfElement const &)
	?childRemoved@AlfAnchorLayoutManager@Alf@@UAEXPAVCAlfWidgetControl@2@@Z @ 32 NONAME ; void Alf::AlfAnchorLayoutManager::childRemoved(class Alf::CAlfWidgetControl *)
	?integer@AlfMap@Alf@@UBEHXZ @ 33 NONAME ; int Alf::AlfMap::integer(void) const
	?getAttribute@AlfAttributeContainer@Alf@@QBEAAVAlfAttribute@2@I@Z @ 34 NONAME ; class Alf::AlfAttribute & Alf::AlfAttributeContainer::getAttribute(unsigned int) const
	?addItem@AlfMap@Alf@@UAEXPAVIAlfVariantType@2@ABVUString@osncore@@@Z @ 35 NONAME ; void Alf::AlfMap::addItem(class Alf::IAlfVariantType *, class osncore::UString const &)
	??1AlfVisualTemplate@Alf@@UAE@XZ @ 36 NONAME ; Alf::AlfVisualTemplate::~AlfVisualTemplate(void)
	?removeVisualTree@AlfElement@Alf@@UAEXAAVIAlfBranch@2@HI@Z @ 37 NONAME ; void Alf::AlfElement::removeVisualTree(class Alf::IAlfBranch &, int, unsigned int)
	?makeInterface@CAlfWidgetControl@Alf@@UAEPAVIAlfInterfaceBase@2@ABUIfId@2@@Z @ 38 NONAME ; class Alf::IAlfInterfaceBase * Alf::CAlfWidgetControl::makeInterface(struct Alf::IfId const &)
	?childTemplate@AlfVisualTemplate@Alf@@UBEAAVIAlfVisualTemplate@2@H@Z @ 39 NONAME ; class Alf::IAlfVisualTemplate & Alf::AlfVisualTemplate::childTemplate(int) const
	?model@AlfWidget@Alf@@UAEPAVIAlfModel@2@XZ @ 40 NONAME ; class Alf::IAlfModel * Alf::AlfWidget::model(void)
	?replaceVisualTree@AlfElement@Alf@@UAEXAAVIAlfVariantType@2@II@Z @ 41 NONAME ; void Alf::AlfElement::replaceVisualTree(class Alf::IAlfVariantType &, unsigned int, unsigned int)
	?customData@AlfBranch@Alf@@UAEPAVIAlfModelBase@2@XZ @ 42 NONAME ; class Alf::IAlfModelBase * Alf::AlfBranch::customData(void)
	?addWidgetEventOutputSignalSubscriber@AlfWidgetEventHandler@Alf@@QAEXAAVIAlfEventOutputSignalSubscriber@2@@Z @ 43 NONAME ; void Alf::AlfWidgetEventHandler::addWidgetEventOutputSignalSubscriber(class Alf::IAlfEventOutputSignalSubscriber &)
	?string@AlfBranch@Alf@@UBEABVUString@osncore@@XZ @ 44 NONAME ; class osncore::UString const & Alf::AlfBranch::string(void) const
	?setDelay@AlfAttribute@Alf@@QAEXH@Z @ 45 NONAME ; void Alf::AlfAttribute::setDelay(int)
	??0AlfVariantType@Alf@@QAE@ABH@Z @ 46 NONAME ; Alf::AlfVariantType::AlfVariantType(int const &)
	??0AlfAnchorLayoutManager@Alf@@QAE@XZ @ 47 NONAME ; Alf::AlfAnchorLayoutManager::AlfAnchorLayoutManager(void)
	??1AlfDeckLayoutAttributeSetter@Alf@@UAE@XZ @ 48 NONAME ; Alf::AlfDeckLayoutAttributeSetter::~AlfDeckLayoutAttributeSetter(void)
	?uinteger@AlfContainer@Alf@@UBEIXZ @ 49 NONAME ; unsigned int Alf::AlfContainer::uinteger(void) const
	?makeInterface@AlfModel@Alf@@UAEPAVIAlfInterfaceBase@2@ABUIfId@2@@Z @ 50 NONAME ; class Alf::IAlfInterfaceBase * Alf::AlfModel::makeInterface(struct Alf::IfId const &)
	??0AlfFlowLayoutAttributeSetter@Alf@@QAE@XZ @ 51 NONAME ; Alf::AlfFlowLayoutAttributeSetter::AlfFlowLayoutAttributeSetter(void)
	?getAttributeByName@AlfAttributeContainer@Alf@@QBEAAVAlfAttribute@2@PBD@Z @ 52 NONAME ; class Alf::AlfAttribute & Alf::AlfAttributeContainer::getAttributeByName(char const *) const
	?string@AlfContainer@Alf@@UBEABVUString@osncore@@XZ @ 53 NONAME ; class osncore::UString const & Alf::AlfContainer::string(void) const
	??1AlfAnimationOutput@Alf@@QAE@XZ @ 54 NONAME ; Alf::AlfAnimationOutput::~AlfAnimationOutput(void)
	?attributeCount@AlfAttributeContainer@Alf@@QBEIXZ @ 55 NONAME ; unsigned int Alf::AlfAttributeContainer::attributeCount(void) const
	?type@AlfAttributeValueType@Alf@@UBE?AW4Type@12@XZ @ 56 NONAME ; enum Alf::AlfAttributeValueType::Type Alf::AlfAttributeValueType::type(void) const
	?setEventHandlerData@AlfRecyclingGridElement@Alf@@UAEXABUAlfWidgetEventHandlerInitData@2@@Z @ 57 NONAME ; void Alf::AlfRecyclingGridElement::setEventHandlerData(struct Alf::AlfWidgetEventHandlerInitData const &)
	??0AlfElement@Alf@@QAE@AAVCAlfWidgetControl@1@PBD@Z @ 58 NONAME ; Alf::AlfElement::AlfElement(class Alf::CAlfWidgetControl &, char const *)
	?real@AlfMap@Alf@@UBENXZ @ 59 NONAME ; double Alf::AlfMap::real(void) const
	?setData@AlfModel@Alf@@UAEXPAVIAlfVariantType@2@@Z @ 60 NONAME ; void Alf::AlfModel::setData(class Alf::IAlfVariantType *)
	?addKeyInput@AlfWidgetEventHandler@Alf@@QAEXHW4EventTypeFlags@2@I@Z @ 61 NONAME ; void Alf::AlfWidgetEventHandler::addKeyInput(int, enum Alf::EventTypeFlags, unsigned int)
	?numAttributeSetters@AlfVisualTemplate@Alf@@UBEHXZ @ 62 NONAME ; int Alf::AlfVisualTemplate::numAttributeSetters(void) const
	??0AlfCommonLayoutAttributeSetter@Alf@@QAE@XZ @ 63 NONAME ; Alf::AlfCommonLayoutAttributeSetter::AlfCommonLayoutAttributeSetter(void)
	??1AlfMap@Alf@@UAE@XZ @ 64 NONAME ; Alf::AlfMap::~AlfMap(void)
	??0AlfAttribute@Alf@@QAE@XZ @ 65 NONAME ; Alf::AlfAttribute::AlfAttribute(void)
	?createVisualTree@AlfRecyclingGridElement@Alf@@UAEPAVCAlfVisual@@AAVIAlfVariantType@2@IPAVCAlfLayout@@H@Z @ 66 NONAME ; class CAlfVisual * Alf::AlfRecyclingGridElement::createVisualTree(class Alf::IAlfVariantType &, unsigned int, class CAlfLayout *, int)
	?removeWidget@AlfWidget@Alf@@UAEXH@Z @ 67 NONAME ; void Alf::AlfWidget::removeWidget(int)
	?eventHandler@CAlfWidgetControl@Alf@@UAEAAVIAlfWidgetEventHandler@2@H@Z @ 68 NONAME ; class Alf::IAlfWidgetEventHandler & Alf::CAlfWidgetControl::eventHandler(int)
	?removeChildVisualTree@AlfRecyclingGridElement@Alf@@UAEXPAVIAlfElement@2@AAVIAlfBranch@2@HI@Z @ 69 NONAME ; void Alf::AlfRecyclingGridElement::removeChildVisualTree(class Alf::IAlfElement *, class Alf::IAlfBranch &, int, unsigned int)
	?createCommand@AlfViewportLayoutAttributeSetter@Alf@@UAEPAVTAlfCommand@@AAVCAlfVisual@@PAVAlfAttributeContainer@2@PAVIAlfMap@2@HPAV4@@Z @ 70 NONAME ; class TAlfCommand * Alf::AlfViewportLayoutAttributeSetter::createCommand(class CAlfVisual &, class Alf::AlfAttributeContainer *, class Alf::IAlfMap *, int, class CAlfVisual *)
	?addWidgetAttributeInput@AlfWidgetEventHandler@Alf@@QAEXAAVUString@osncore@@PAVAlfAttributeValueType@2@PBD@Z @ 71 NONAME ; void Alf::AlfWidgetEventHandler::addWidgetAttributeInput(class osncore::UString &, class Alf::AlfAttributeValueType *, char const *)
	??1AlfAnchorLayoutManager@Alf@@UAE@XZ @ 72 NONAME ; Alf::AlfAnchorLayoutManager::~AlfAnchorLayoutManager(void)
	?createChildVisualTree@AlfElement@Alf@@UAEXPAVIAlfElement@2@AAVIAlfVariantType@2@AAVIAlfBranch@2@HI@Z @ 73 NONAME ; void Alf::AlfElement::createChildVisualTree(class Alf::IAlfElement *, class Alf::IAlfVariantType &, class Alf::IAlfBranch &, int, unsigned int)
	?map@AlfVariantType@Alf@@UAEPAVIAlfMap@2@XZ @ 74 NONAME ; class Alf::IAlfMap * Alf::AlfVariantType::map(void)
	?container@AlfContainer@Alf@@UAEPAVIAlfContainer@2@XZ @ 75 NONAME ; class Alf::IAlfContainer * Alf::AlfContainer::container(void)
	?dataID@AlfElement@Alf@@UBEIABVCAlfVisual@@@Z @ 76 NONAME ; unsigned int Alf::AlfElement::dataID(class CAlfVisual const &) const
	?setSelectChildMode@AlfVisualTemplate@Alf@@UAEX_NABVUString@osncore@@@Z @ 77 NONAME ; void Alf::AlfVisualTemplate::setSelectChildMode(bool, class osncore::UString const &)
	?createVisualTree@AlfElement@Alf@@UAEPAVCAlfVisual@@AAVIAlfVariantType@2@IPAVCAlfLayout@@H@Z @ 78 NONAME ; class CAlfVisual * Alf::AlfElement::createVisualTree(class Alf::IAlfVariantType &, unsigned int, class CAlfLayout *, int)
	??0AlfModel@Alf@@QAE@PAVIAlfVariantType@1@@Z @ 79 NONAME ; Alf::AlfModel::AlfModel(class Alf::IAlfVariantType *)
	?widget@CAlfWidgetControl@Alf@@UAEPAVAlfWidget@2@XZ @ 80 NONAME ; class Alf::AlfWidget * Alf::CAlfWidgetControl::widget(void)
	?owner@AlfLayoutManager@Alf@@QBEAAVCAlfWidgetControl@2@XZ @ 81 NONAME ; class Alf::CAlfWidgetControl & Alf::AlfLayoutManager::owner(void) const
	?updateChildLayout@AlfGridLayoutManager@Alf@@UAEXPAVCAlfWidgetControl@2@@Z @ 82 NONAME ; void Alf::AlfGridLayoutManager::updateChildLayout(class Alf::CAlfWidgetControl *)
	?setAttributeValue@AlfMeshVisualAttributeSetter@Alf@@UAEXAAVCAlfVisual@@PAVAlfAttributeContainer@2@PAVIAlfMap@2@@Z @ 83 NONAME ; void Alf::AlfMeshVisualAttributeSetter::setAttributeValue(class CAlfVisual &, class Alf::AlfAttributeContainer *, class Alf::IAlfMap *)
	?makeInterface@AlfWidget@Alf@@UAEPAVIAlfInterfaceBase@2@ABUIfId@2@@Z @ 84 NONAME ; class Alf::IAlfInterfaceBase * Alf::AlfWidget::makeInterface(struct Alf::IfId const &)
	?notifyModelChanged@AlfModel@Alf@@QAEXXZ @ 85 NONAME ; void Alf::AlfModel::notifyModelChanged(void)
	?resourcePool@AlfWidgetEnvExtension@Alf@@SAAAVResourcePool@2@AAVCAlfEnv@@@Z @ 86 NONAME ; class Alf::ResourcePool & Alf::AlfWidgetEnvExtension::resourcePool(class CAlfEnv &)
	??1AlfBranch@Alf@@UAE@XZ @ 87 NONAME ; Alf::AlfBranch::~AlfBranch(void)
	?getDataField@AlfAttribute@Alf@@QBEPBDXZ @ 88 NONAME ; char const * Alf::AlfAttribute::getDataField(void) const
	?createAndSendCommands@AlfMeshVisualAttributeSetter@Alf@@UAEXAAVCAlfVisual@@PAVAlfAttributeContainer@2@PAV3@@Z @ 89 NONAME ; void Alf::AlfMeshVisualAttributeSetter::createAndSendCommands(class CAlfVisual &, class Alf::AlfAttributeContainer *, class CAlfVisual *)
	?numChildTemplates@AlfVisualTemplate@Alf@@UBEHXZ @ 90 NONAME ; int Alf::AlfVisualTemplate::numChildTemplates(void) const
	?attributeSetter@AlfVisualTemplate@Alf@@UBEAAVIAlfAttributeSetter@2@H@Z @ 91 NONAME ; class Alf::IAlfAttributeSetter & Alf::AlfVisualTemplate::attributeSetter(int) const
	??0AlfLineVisualAttributeSetter@Alf@@QAE@XZ @ 92 NONAME ; Alf::AlfLineVisualAttributeSetter::AlfLineVisualAttributeSetter(void)
	?branch@AlfContainer@Alf@@UAEPAVIAlfBranch@2@XZ @ 93 NONAME ; class Alf::IAlfBranch * Alf::AlfContainer::branch(void)
	?setState@CAlfWidgetControl@Alf@@UAEXI@Z @ 94 NONAME ; void Alf::CAlfWidgetControl::setState(unsigned int)
	?rgbValue@AlfAttributeValueType@Alf@@UBEMXZ @ 95 NONAME ; float Alf::AlfAttributeValueType::rgbValue(void) const
	?string@AlfVariantType@Alf@@UBEABVUString@osncore@@XZ @ 96 NONAME ; class osncore::UString const & Alf::AlfVariantType::string(void) const
	??1AlfModelOperation@Alf@@QAE@XZ @ 97 NONAME ; Alf::AlfModelOperation::~AlfModelOperation(void)
	??0AlfVisualTemplate@Alf@@IAE@W4TAlfVisualType@@@Z @ 98 NONAME ; Alf::AlfVisualTemplate::AlfVisualTemplate(enum TAlfVisualType)
	?unit@AlfAttributeValueType@Alf@@UBE?AW4TAlfUnit@@XZ @ 99 NONAME ; enum TAlfUnit Alf::AlfAttributeValueType::unit(void) const
	?removeItem@AlfContainer@Alf@@UAEXI@Z @ 100 NONAME ; void Alf::AlfContainer::removeItem(unsigned int)
	?addWidget@AlfWidget@Alf@@UAEXAAVIAlfWidget@2@@Z @ 101 NONAME ; void Alf::AlfWidget::addWidget(class Alf::IAlfWidget &)
	?removeData@AlfModel@Alf@@UAEXHPAH@Z @ 102 NONAME ; void Alf::AlfModel::removeData(int, int *)
	?addElement@CAlfWidgetControl@Alf@@UAEXPAVIAlfElement@2@@Z @ 103 NONAME ; void Alf::CAlfWidgetControl::addElement(class Alf::IAlfElement *)
	??0AlfWidget@Alf@@QAE@PBD@Z @ 104 NONAME ; Alf::AlfWidget::AlfWidget(char const *)
	??1AlfFlowLayoutAttributeSetter@Alf@@UAE@XZ @ 105 NONAME ; Alf::AlfFlowLayoutAttributeSetter::~AlfFlowLayoutAttributeSetter(void)
	?sort@AlfBranch@Alf@@UAEXABVIAlfSortFunction@2@@Z @ 106 NONAME ; void Alf::AlfBranch::sort(class Alf::IAlfSortFunction const &)
	?doUpdateChildLayout@AlfAnchorLayoutManager@Alf@@MAEXPAVCAlfWidgetControl@2@@Z @ 107 NONAME ; void Alf::AlfAnchorLayoutManager::doUpdateChildLayout(class Alf::CAlfWidgetControl *)
	?integer@AlfVariantType@Alf@@UBEHXZ @ 108 NONAME ; int Alf::AlfVariantType::integer(void) const
	?createAndSendCommands@AlfViewportLayoutAttributeSetter@Alf@@UAEXAAVCAlfVisual@@PAVAlfAttributeContainer@2@PAV3@@Z @ 109 NONAME ; void Alf::AlfViewportLayoutAttributeSetter::createAndSendCommands(class CAlfVisual &, class Alf::AlfAttributeContainer *, class CAlfVisual *)
	?nextFocusableControl@CAlfWidgetControl@Alf@@AAEPAV12@PAV12@@Z @ 110 NONAME ; class Alf::CAlfWidgetControl * Alf::CAlfWidgetControl::nextFocusableControl(class Alf::CAlfWidgetControl *)
	?getLayoutPreferences@AlfLayoutManager@Alf@@IBEPBVIAlfLayoutPreferences@2@PAVCAlfWidgetControl@2@@Z @ 111 NONAME ; class Alf::IAlfLayoutPreferences const * Alf::AlfLayoutManager::getLayoutPreferences(class Alf::CAlfWidgetControl *) const
	?findVisual@AlfElement@Alf@@QAEPAVCAlfVisual@@I@Z @ 112 NONAME ; class CAlfVisual * Alf::AlfElement::findVisual(unsigned int)
	?removeAndDestroyElement@CAlfWidgetControl@Alf@@UAEXABVIAlfElement@2@@Z @ 113 NONAME ; void Alf::CAlfWidgetControl::removeAndDestroyElement(class Alf::IAlfElement const &)
	?setSourceValue@AlfAttribute@Alf@@QAEXPAVAlfAttributeValueType@2@I@Z @ 114 NONAME ; void Alf::AlfAttribute::setSourceValue(class Alf::AlfAttributeValueType *, unsigned int)
	??0AlfVariantType@Alf@@QAE@ABN@Z @ 115 NONAME ; Alf::AlfVariantType::AlfVariantType(double const &)
	??1AlfCommonVisualAttributeSetter@Alf@@UAE@XZ @ 116 NONAME ; Alf::AlfCommonVisualAttributeSetter::~AlfCommonVisualAttributeSetter(void)
	??0AlfImageVisualAttributeSetter@Alf@@QAE@XZ @ 117 NONAME ; Alf::AlfImageVisualAttributeSetter::AlfImageVisualAttributeSetter(void)
	?createChildVisualTree@AlfRecyclingGridElement@Alf@@UAEXPAVIAlfElement@2@AAVIAlfVariantType@2@AAVIAlfBranch@2@HI@Z @ 118 NONAME ; void Alf::AlfRecyclingGridElement::createChildVisualTree(class Alf::IAlfElement *, class Alf::IAlfVariantType &, class Alf::IAlfBranch &, int, unsigned int)
	?getFocusableBefore@CAlfWidgetControl@Alf@@MAEPAV12@AAVIAlfContainerWidget@2@AAV12@@Z @ 119 NONAME ; class Alf::CAlfWidgetControl * Alf::CAlfWidgetControl::getFocusableBefore(class Alf::IAlfContainerWidget &, class Alf::CAlfWidgetControl &)
	?setAttributeValue@AlfDeckLayoutAttributeSetter@Alf@@UAEXAAVCAlfVisual@@PAVAlfAttributeContainer@2@PAVIAlfMap@2@@Z @ 120 NONAME ; void Alf::AlfDeckLayoutAttributeSetter::setAttributeValue(class CAlfVisual &, class Alf::AlfAttributeContainer *, class Alf::IAlfMap *)
	?modelChanged@CAlfWidgetControl@Alf@@UAEXAAVIAlfModel@2@@Z @ 121 NONAME ; void Alf::CAlfWidgetControl::modelChanged(class Alf::IAlfModel &)
	?createCommand@AlfFlowLayoutAttributeSetter@Alf@@UAEPAVTAlfCommand@@AAVCAlfVisual@@PAVAlfAttributeContainer@2@PAVIAlfMap@2@HPAV4@@Z @ 122 NONAME ; class TAlfCommand * Alf::AlfFlowLayoutAttributeSetter::createCommand(class CAlfVisual &, class Alf::AlfAttributeContainer *, class Alf::IAlfMap *, int, class CAlfVisual *)
	?createAndSendCommands@AlfAnchorLayoutAttributeSetter@Alf@@UAEXAAVCAlfVisual@@PAVAlfAttributeContainer@2@PAV3@@Z @ 123 NONAME ; void Alf::AlfAnchorLayoutAttributeSetter::createAndSendCommands(class CAlfVisual &, class Alf::AlfAttributeContainer *, class CAlfVisual *)
	?createVisualTree@AlfVisualTemplate@Alf@@UAEPAVCAlfVisual@@AAVCAlfControl@@PAVIAlfMap@2@PAVCAlfLayout@@H@Z @ 124 NONAME ; class CAlfVisual * Alf::AlfVisualTemplate::createVisualTree(class CAlfControl &, class Alf::IAlfMap *, class CAlfLayout *, int)
	?uinteger@AlfBranch@Alf@@UBEIXZ @ 125 NONAME ; unsigned int Alf::AlfBranch::uinteger(void) const
	?getWidget@AlfWidget@Alf@@UBEPAVIAlfWidget@2@H@Z @ 126 NONAME ; class Alf::IAlfWidget * Alf::AlfWidget::getWidget(int) const
	?getSourceValueCount@AlfAttribute@Alf@@QBEIXZ @ 127 NONAME ; unsigned int Alf::AlfAttribute::getSourceValueCount(void) const
	??0AlfVariantType@Alf@@QAE@ABI@Z @ 128 NONAME ; Alf::AlfVariantType::AlfVariantType(unsigned int const &)
	?getSourceValue@AlfAttribute@Alf@@QBEPAVAlfAttributeValueType@2@I@Z @ 129 NONAME ; class Alf::AlfAttributeValueType * Alf::AlfAttribute::getSourceValue(unsigned int) const
	?boolean@AlfContainer@Alf@@UBE_NXZ @ 130 NONAME ; bool Alf::AlfContainer::boolean(void) const
	?setVisualType@AlfVisualTemplate@Alf@@UAEXW4TAlfVisualType@@@Z @ 131 NONAME ; void Alf::AlfVisualTemplate::setVisualType(enum TAlfVisualType)
	?construct@CAlfWidgetControl@Alf@@IAEXAAVCAlfEnv@@@Z @ 132 NONAME ; void Alf::CAlfWidgetControl::construct(class CAlfEnv &)
	?addEventHandler@CAlfWidgetControl@Alf@@UAEXPAVIAlfWidgetEventHandler@2@H@Z @ 133 NONAME ; void Alf::CAlfWidgetControl::addEventHandler(class Alf::IAlfWidgetEventHandler *, int)
	?integer@AlfContainer@Alf@@UBEHXZ @ 134 NONAME ; int Alf::AlfContainer::integer(void) const
	??1AlfReferenceToVisual@Alf@@QAE@XZ @ 135 NONAME ; Alf::AlfReferenceToVisual::~AlfReferenceToVisual(void)
	?uinteger@AlfVariantType@Alf@@UBEIXZ @ 136 NONAME ; unsigned int Alf::AlfVariantType::uinteger(void) const
	?destroyPresentation@CAlfWidgetControl@Alf@@UAEXH@Z @ 137 NONAME ; void Alf::CAlfWidgetControl::destroyPresentation(int)
	??1AlfLineVisualAttributeSetter@Alf@@UAE@XZ @ 138 NONAME ; Alf::AlfLineVisualAttributeSetter::~AlfLineVisualAttributeSetter(void)
	??0AlfVariantType@Alf@@QAE@ABVUString@osncore@@@Z @ 139 NONAME ; Alf::AlfVariantType::AlfVariantType(class osncore::UString const &)
	?executeOperations@AlfModel@Alf@@UAEXAAV?$AlfPtrVector@VAlfModelOperation@Alf@@@osncore@@@Z @ 140 NONAME ; void Alf::AlfModel::executeOperations(class osncore::AlfPtrVector<class Alf::AlfModelOperation> &)
	??1AlfVariantType@Alf@@UAE@XZ @ 141 NONAME ; Alf::AlfVariantType::~AlfVariantType(void)
	?removeSourceValue@AlfAttribute@Alf@@QAEXI@Z @ 142 NONAME ; void Alf::AlfAttribute::removeSourceValue(unsigned int)
	?removeEventHandler@CAlfWidgetControl@Alf@@UAEXAAVIAlfWidgetEventHandler@2@@Z @ 143 NONAME ; void Alf::CAlfWidgetControl::removeEventHandler(class Alf::IAlfWidgetEventHandler &)
	?parent@AlfVisualTemplate@Alf@@UBEPAVIAlfVisualTemplate@2@XZ @ 144 NONAME ; class Alf::IAlfVisualTemplate * Alf::AlfVisualTemplate::parent(void) const
	?createAndSendCommands@AlfCommonAttributeSetter@Alf@@UAEXAAVCAlfVisual@@PAVAlfAttributeContainer@2@PAV3@@Z @ 145 NONAME ; void Alf::AlfCommonAttributeSetter::createAndSendCommands(class CAlfVisual &, class Alf::AlfAttributeContainer *, class CAlfVisual *)
	?getTime@AlfAttributeContainer@Alf@@QBEIXZ @ 146 NONAME ; unsigned int Alf::AlfAttributeContainer::getTime(void) const
	?addVisualTree@AlfElement@Alf@@QAEXPAVCAlfVisual@@I@Z @ 147 NONAME ; void Alf::AlfElement::addVisualTree(class CAlfVisual *, unsigned int)
	?setAttributeValue@AlfTextVisualAttributeSetter@Alf@@UAEXAAVCAlfVisual@@PAVAlfAttributeContainer@2@PAVIAlfMap@2@@Z @ 148 NONAME ; void Alf::AlfTextVisualAttributeSetter::setAttributeValue(class CAlfVisual &, class Alf::AlfAttributeContainer *, class Alf::IAlfMap *)
	?isDirty@AlfAttribute@Alf@@QBE_NXZ @ 149 NONAME ; bool Alf::AlfAttribute::isDirty(void) const
	?makeInterface@AlfAnchorLayoutManager@Alf@@MAEPAVIAlfInterfaceBase@2@ABUIfId@2@@Z @ 150 NONAME ; class Alf::IAlfInterfaceBase * Alf::AlfAnchorLayoutManager::makeInterface(struct Alf::IfId const &)
	?insertChildTemplate@AlfVisualTemplate@Alf@@UAEXAAVIAlfVisualTemplate@2@H@Z @ 151 NONAME ; void Alf::AlfVisualTemplate::insertChildTemplate(class Alf::IAlfVisualTemplate &, int)
	?create@AlfVisualTemplate@Alf@@SAPAV12@W4TAlfVisualType@@@Z @ 152 NONAME ; class Alf::AlfVisualTemplate * Alf::AlfVisualTemplate::create(enum TAlfVisualType)
	?setTime@AlfAttributeContainer@Alf@@QAEXI@Z @ 153 NONAME ; void Alf::AlfAttributeContainer::setTime(unsigned int)
	?real@AlfContainer@Alf@@UBENXZ @ 154 NONAME ; double Alf::AlfContainer::real(void) const
	?clone@AlfContainer@Alf@@UAEPAVIAlfContainer@2@XZ @ 155 NONAME ; class Alf::IAlfContainer * Alf::AlfContainer::clone(void)
	?getFirstFocusable@CAlfWidgetControl@Alf@@MAEPAV12@AAVIAlfContainerWidget@2@@Z @ 156 NONAME ; class Alf::CAlfWidgetControl * Alf::CAlfWidgetControl::getFirstFocusable(class Alf::IAlfContainerWidget &)
	?setData@AlfBranch@Alf@@UAEXPAVIAlfMap@2@@Z @ 157 NONAME ; void Alf::AlfBranch::setData(class Alf::IAlfMap *)
	??1AlfGridLayoutManager@Alf@@UAE@XZ @ 158 NONAME ; Alf::AlfGridLayoutManager::~AlfGridLayoutManager(void)
	?setAttributeValue@AlfAnchorLayoutAttributeSetter@Alf@@UAEXAAVCAlfVisual@@PAVAlfAttributeContainer@2@PAVIAlfMap@2@@Z @ 159 NONAME ; void Alf::AlfAnchorLayoutAttributeSetter::setAttributeValue(class CAlfVisual &, class Alf::AlfAttributeContainer *, class Alf::IAlfMap *)
	?destroyChildTemplate@AlfVisualTemplate@Alf@@UAEXH@Z @ 160 NONAME ; void Alf::AlfVisualTemplate::destroyChildTemplate(int)
	?setAttributeValue@AlfViewportLayoutAttributeSetter@Alf@@UAEXAAVCAlfVisual@@PAVAlfAttributeContainer@2@PAVIAlfMap@2@@Z @ 161 NONAME ; void Alf::AlfViewportLayoutAttributeSetter::setAttributeValue(class CAlfVisual &, class Alf::AlfAttributeContainer *, class Alf::IAlfMap *)
	?setPresentation@AlfWidget@Alf@@UAEXPBD@Z @ 162 NONAME ; void Alf::AlfWidget::setPresentation(char const *)
	?customData@AlfMap@Alf@@UAEPAVIAlfModelBase@2@XZ @ 163 NONAME ; class Alf::IAlfModelBase * Alf::AlfMap::customData(void)
	?createVisualTree@AlfElement@Alf@@UAEPAVCAlfVisual@@AAVIAlfVariantType@2@AAVIAlfBranch@2@HIPAVCAlfLayout@@H@Z @ 164 NONAME ; class CAlfVisual * Alf::AlfElement::createVisualTree(class Alf::IAlfVariantType &, class Alf::IAlfBranch &, int, unsigned int, class CAlfLayout *, int)
	?childName@AlfBranch@Alf@@UAEABVUString@osncore@@H@Z @ 165 NONAME ; class osncore::UString const & Alf::AlfBranch::childName(int)
	?type@AlfAttribute@Alf@@QBE?AW4Type@AlfAttributeValueType@2@I@Z @ 166 NONAME ; enum Alf::AlfAttributeValueType::Type Alf::AlfAttribute::type(unsigned int) const
	??0AlfAttribute@Alf@@QAE@PBDABVUString@osncore@@W4attributecategory@01@@Z @ 167 NONAME ; Alf::AlfAttribute::AlfAttribute(char const *, class osncore::UString const &, enum Alf::AlfAttribute::attributecategory)
	?intValue@AlfAttributeValueType@Alf@@UBEHXZ @ 168 NONAME ; int Alf::AlfAttributeValueType::intValue(void) const
	?branch@AlfVariantType@Alf@@UAEPAVIAlfBranch@2@XZ @ 169 NONAME ; class Alf::IAlfBranch * Alf::AlfVariantType::branch(void)
	?addItem@AlfContainer@Alf@@UAEXIPAVIAlfVariantType@2@@Z @ 170 NONAME ; void Alf::AlfContainer::addItem(unsigned int, class Alf::IAlfVariantType *)
	?dataIdToIndex@CAlfWidgetControl@Alf@@UAEIABVIAlfElement@2@I@Z @ 171 NONAME ; unsigned int Alf::CAlfWidgetControl::dataIdToIndex(class Alf::IAlfElement const &, unsigned int)
	?type@AlfMap@Alf@@UBE?AW4Type@IAlfVariantType@2@XZ @ 172 NONAME ; enum Alf::IAlfVariantType::Type Alf::AlfMap::type(void) const
	??0CAlfWidgetControl@Alf@@IAE@XZ @ 173 NONAME ; Alf::CAlfWidgetControl::CAlfWidgetControl(void)
	?removeVisualTree@AlfElement@Alf@@UAEXAAVIAlfVariantType@2@I@Z @ 174 NONAME ; void Alf::AlfElement::removeVisualTree(class Alf::IAlfVariantType &, unsigned int)
	?name@AlfMap@Alf@@UBEABVUString@osncore@@I@Z @ 175 NONAME ; class osncore::UString const & Alf::AlfMap::name(unsigned int) const
	?updateVisualTree@AlfElement@Alf@@UAEXAAVIAlfVariantType@2@0I@Z @ 176 NONAME ; void Alf::AlfElement::updateVisualTree(class Alf::IAlfVariantType &, class Alf::IAlfVariantType &, unsigned int)
	??0AlfBranch@Alf@@QAE@PAVIAlfMap@1@0@Z @ 177 NONAME ; Alf::AlfBranch::AlfBranch(class Alf::IAlfMap *, class Alf::IAlfMap *)
	?destroyVisualTemplate@AlfElement@Alf@@UAEXXZ @ 178 NONAME ; void Alf::AlfElement::destroyVisualTemplate(void)
	??0AlfWidgetEventHandler@Alf@@QAE@W4AlfEventHandlerType@IAlfWidgetEventHandler@1@W4AlfEventHandlerExecutionPhase@31@@Z @ 179 NONAME ; Alf::AlfWidgetEventHandler::AlfWidgetEventHandler(enum Alf::IAlfWidgetEventHandler::AlfEventHandlerType, enum Alf::IAlfWidgetEventHandler::AlfEventHandlerExecutionPhase)
	?addBrush@AlfVisualTemplate@Alf@@UAEXAAVCAlfBrush@@@Z @ 180 NONAME ; void Alf::AlfVisualTemplate::addBrush(class CAlfBrush &)
	?category@AlfAttribute@Alf@@QBE?AW4attributecategory@12@XZ @ 181 NONAME ; enum Alf::AlfAttribute::attributecategory Alf::AlfAttribute::category(void) const
	?intValue@AlfAttribute@Alf@@QBEHI@Z @ 182 NONAME ; int Alf::AlfAttribute::intValue(unsigned int) const
	?createAndSendCommands@AlfImageVisualAttributeSetter@Alf@@UAEXAAVCAlfVisual@@PAVAlfAttributeContainer@2@PAV3@@Z @ 183 NONAME ; void Alf::AlfImageVisualAttributeSetter::createAndSendCommands(class CAlfVisual &, class Alf::AlfAttributeContainer *, class CAlfVisual *)
	?updatePresentation@CAlfWidgetControl@Alf@@UAEXXZ @ 184 NONAME ; void Alf::CAlfWidgetControl::updatePresentation(void)
	?makeInterface@AlfGridLayoutManager@Alf@@MAEPAVIAlfInterfaceBase@2@ABUIfId@2@@Z @ 185 NONAME ; class Alf::IAlfInterfaceBase * Alf::AlfGridLayoutManager::makeInterface(struct Alf::IfId const &)
	??0AlfRecyclingGridElement@Alf@@QAE@AAVCAlfWidgetControl@1@PBDHH@Z @ 186 NONAME ; Alf::AlfRecyclingGridElement::AlfRecyclingGridElement(class Alf::CAlfWidgetControl &, char const *, int, int)
	??0AlfVisualTemplate@Alf@@IAE@XZ @ 187 NONAME ; Alf::AlfVisualTemplate::AlfVisualTemplate(void)
	?setFillStyle@AlfRecyclingGridElement@Alf@@QAEXW4FillStyle@12@H@Z @ 188 NONAME ; void Alf::AlfRecyclingGridElement::setFillStyle(enum Alf::AlfRecyclingGridElement::FillStyle, int)
	?addItem@AlfMap@Alf@@UAEXIPAVIAlfVariantType@2@ABVUString@osncore@@@Z @ 189 NONAME ; void Alf::AlfMap::addItem(unsigned int, class Alf::IAlfVariantType *, class osncore::UString const &)
	??1AlfAttributeValueType@Alf@@UAE@XZ @ 190 NONAME ; Alf::AlfAttributeValueType::~AlfAttributeValueType(void)
	??1AlfCommonLayoutAttributeSetter@Alf@@UAE@XZ @ 191 NONAME ; Alf::AlfCommonLayoutAttributeSetter::~AlfCommonLayoutAttributeSetter(void)
	?AcquireFocus@CAlfWidgetControl@Alf@@QAEXXZ @ 192 NONAME ; void Alf::CAlfWidgetControl::AcquireFocus(void)
	?visualType@AlfVisualTemplate@Alf@@UBEHXZ @ 193 NONAME ; int Alf::AlfVisualTemplate::visualType(void) const
	?processEvent@CAlfWidgetControl@Alf@@QAE?AW4AlfEventStatus@2@ABVTAlfEvent@@@Z @ 194 NONAME ; enum Alf::AlfEventStatus Alf::CAlfWidgetControl::processEvent(class TAlfEvent const &)
	??0AlfCommonAttributeSetter@Alf@@QAE@XZ @ 195 NONAME ; Alf::AlfCommonAttributeSetter::AlfCommonAttributeSetter(void)
	?setParent@AlfVisualTemplate@Alf@@UAEXPAVIAlfVisualTemplate@2@@Z @ 196 NONAME ; void Alf::AlfVisualTemplate::setParent(class Alf::IAlfVisualTemplate *)
	?stringValue@AlfAttributeValueType@Alf@@UBEABVUString@osncore@@XZ @ 197 NONAME ; class osncore::UString const & Alf::AlfAttributeValueType::stringValue(void) const
	??0AlfAttribute@Alf@@QAE@PBDHW4TAlfUnit@@W4attributecategory@01@@Z @ 198 NONAME ; Alf::AlfAttribute::AlfAttribute(char const *, int, enum TAlfUnit, enum Alf::AlfAttribute::attributecategory)
	?updateVisualTree@AlfVisualTemplate@Alf@@UAEPAVCAlfVisual@@PAVIAlfMap@2@0AAV3@@Z @ 199 NONAME ; class CAlfVisual * Alf::AlfVisualTemplate::updateVisualTree(class Alf::IAlfMap *, class Alf::IAlfMap *, class CAlfVisual &)
	??0AlfTextVisualAttributeSetter@Alf@@QAE@XZ @ 200 NONAME ; Alf::AlfTextVisualAttributeSetter::AlfTextVisualAttributeSetter(void)
	?handleFocusNext@CAlfWidgetControl@Alf@@IAE_NXZ @ 201 NONAME ; bool Alf::CAlfWidgetControl::handleFocusNext(void)
	?initializeEnvironment@AlfWidgetEnvExtension@Alf@@SAXAAVCAlfEnv@@@Z @ 202 NONAME ; void Alf::AlfWidgetEnvExtension::initializeEnvironment(class CAlfEnv &)
	?setAttributeValue@AlfCommonAttributeSetter@Alf@@UAEXAAVCAlfVisual@@PAVAlfAttributeContainer@2@PAVIAlfMap@2@@Z @ 203 NONAME ; void Alf::AlfCommonAttributeSetter::setAttributeValue(class CAlfVisual &, class Alf::AlfAttributeContainer *, class Alf::IAlfMap *)
	??0AlfGridLayoutAttributeSetter@Alf@@QAE@XZ @ 204 NONAME ; Alf::AlfGridLayoutAttributeSetter::AlfGridLayoutAttributeSetter(void)
	?makeInterface@AlfHostAPIImpl@Alf@@UAEPAVIAlfInterfaceBase@2@ABUIfId@2@@Z @ 205 NONAME ; class Alf::IAlfInterfaceBase * Alf::AlfHostAPIImpl::makeInterface(struct Alf::IfId const &)
	?createCommand@AlfGridLayoutAttributeSetter@Alf@@UAEPAVTAlfCommand@@AAVCAlfVisual@@PAVAlfAttributeContainer@2@PAVIAlfMap@2@HPAV4@@Z @ 206 NONAME ; class TAlfCommand * Alf::AlfGridLayoutAttributeSetter::createCommand(class CAlfVisual &, class Alf::AlfAttributeContainer *, class Alf::IAlfMap *, int, class CAlfVisual *)
	?type@AlfBranch@Alf@@UBE?AW4Type@IAlfVariantType@2@XZ @ 207 NONAME ; enum Alf::IAlfVariantType::Type Alf::AlfBranch::type(void) const
	?addCancelOutput@AlfWidgetEventHandler@Alf@@QAEXPBDH_N@Z @ 208 NONAME ; void Alf::AlfWidgetEventHandler::addCancelOutput(char const *, int, bool)
	?enumValue@AlfAttributeValueType@Alf@@UBEHXZ @ 209 NONAME ; int Alf::AlfAttributeValueType::enumValue(void) const
	??1AlfAttributeContainer@Alf@@QAE@XZ @ 210 NONAME ; Alf::AlfAttributeContainer::~AlfAttributeContainer(void)
	?setModel@AlfWidget@Alf@@UAEXPAVIAlfModel@2@_N@Z @ 211 NONAME ; void Alf::AlfWidget::setModel(class Alf::IAlfModel *, bool)
	?createCommand@AlfLineVisualAttributeSetter@Alf@@UAEPAVTAlfCommand@@AAVCAlfVisual@@PAVAlfAttributeContainer@2@PAVIAlfMap@2@HPAV4@@Z @ 212 NONAME ; class TAlfCommand * Alf::AlfLineVisualAttributeSetter::createCommand(class CAlfVisual &, class Alf::AlfAttributeContainer *, class Alf::IAlfMap *, int, class CAlfVisual *)
	?set@AlfContainer@Alf@@UAEXAAVIAlfVariantType@2@@Z @ 213 NONAME ; void Alf::AlfContainer::set(class Alf::IAlfVariantType &)
	?addWidgetAttributeOutput@AlfWidgetEventHandler@Alf@@QAEXAAVAlfAttribute@2@PBD@Z @ 214 NONAME ; void Alf::AlfWidgetEventHandler::addWidgetAttributeOutput(class Alf::AlfAttribute &, char const *)
	?setControlSize@AlfLayoutManager@Alf@@IAEXAAVCAlfWidgetControl@2@ABUTAlfRealPoint@@@Z @ 215 NONAME ; void Alf::AlfLayoutManager::setControlSize(class Alf::CAlfWidgetControl &, struct TAlfRealPoint const &)
	?control@AlfElement@Alf@@IAEAAVCAlfWidgetControl@2@XZ @ 216 NONAME ; class Alf::CAlfWidgetControl & Alf::AlfElement::control(void)
	??0AlfGridLayoutManager@Alf@@QAE@XZ @ 217 NONAME ; Alf::AlfGridLayoutManager::AlfGridLayoutManager(void)
	?findVisual@AlfElement@Alf@@UAEPAVCAlfVisual@@PBDI@Z @ 218 NONAME ; class CAlfVisual * Alf::AlfElement::findVisual(char const *, unsigned int)
	?numEventHandlers@CAlfWidgetControl@Alf@@UBEHXZ @ 219 NONAME ; int Alf::CAlfWidgetControl::numEventHandlers(void) const
	??0AlfVariantType@Alf@@QAE@AB_N@Z @ 220 NONAME ; Alf::AlfVariantType::AlfVariantType(bool const &)
	??1AlfViewportLayoutAttributeSetter@Alf@@UAE@XZ @ 221 NONAME ; Alf::AlfViewportLayoutAttributeSetter::~AlfViewportLayoutAttributeSetter(void)
	?dataIdRange@CAlfWidgetControl@Alf@@UAEIABVIAlfElement@2@@Z @ 222 NONAME ; unsigned int Alf::CAlfWidgetControl::dataIdRange(class Alf::IAlfElement const &)
	?item@AlfMap@Alf@@UAEPAVIAlfVariantType@2@I@Z @ 223 NONAME ; class Alf::IAlfVariantType * Alf::AlfMap::item(unsigned int)
	??0AlfAttribute@Alf@@QAE@PBDMW4TAlfUnit@@W4attributecategory@01@@Z @ 224 NONAME ; Alf::AlfAttribute::AlfAttribute(char const *, float, enum TAlfUnit, enum Alf::AlfAttribute::attributecategory)
	?boolean@AlfVariantType@Alf@@UBE_NXZ @ 225 NONAME ; bool Alf::AlfVariantType::boolean(void) const
	?replaceItem@AlfMap@Alf@@UAEXABVUString@osncore@@PAVIAlfVariantType@2@@Z @ 226 NONAME ; void Alf::AlfMap::replaceItem(class osncore::UString const &, class Alf::IAlfVariantType *)
	??0AlfVariantType@Alf@@QAE@XZ @ 227 NONAME ; Alf::AlfVariantType::AlfVariantType(void)
	?count@AlfContainer@Alf@@UAEHXZ @ 228 NONAME ; int Alf::AlfContainer::count(void)
	??1AlfRecyclingGridElement@Alf@@UAE@XZ @ 229 NONAME ; Alf::AlfRecyclingGridElement::~AlfRecyclingGridElement(void)
	?map@AlfBranch@Alf@@UAEPAVIAlfMap@2@XZ @ 230 NONAME ; class Alf::IAlfMap * Alf::AlfBranch::map(void)
	?getMappingFunctionId@AlfAttribute@Alf@@QBEHXZ @ 231 NONAME ; int Alf::AlfAttribute::getMappingFunctionId(void) const
	??0AlfAttributeValueType@Alf@@QAE@MW4TAlfUnit@@@Z @ 232 NONAME ; Alf::AlfAttributeValueType::AlfAttributeValueType(float, enum TAlfUnit)
	?childData@AlfBranch@Alf@@UAEPAVIAlfVariantType@2@H@Z @ 233 NONAME ; class Alf::IAlfVariantType * Alf::AlfBranch::childData(int)
	?name@AlfVisualTemplate@Alf@@UBEPBDXZ @ 234 NONAME ; char const * Alf::AlfVisualTemplate::name(void) const
	?setDirty@AlfAttribute@Alf@@QAEX_N@Z @ 235 NONAME ; void Alf::AlfAttribute::setDirty(bool)
	?removeAndDestroyVisuals@AlfRecyclingGridElement@Alf@@UAEXH@Z @ 236 NONAME ; void Alf::AlfRecyclingGridElement::removeAndDestroyVisuals(int)
	?createAndSendCommands@AlfCurvePathLayoutAttributeSetter@Alf@@UAEXAAVCAlfVisual@@PAVAlfAttributeContainer@2@PAV3@@Z @ 237 NONAME ; void Alf::AlfCurvePathLayoutAttributeSetter::createAndSendCommands(class CAlfVisual &, class Alf::AlfAttributeContainer *, class CAlfVisual *)
	?updateChildrenLayout@AlfLayoutManager@Alf@@UAEXXZ @ 238 NONAME ; void Alf::AlfLayoutManager::updateChildrenLayout(void)
	?setAttributeValue@AlfImageVisualAttributeSetter@Alf@@UAEXAAVCAlfVisual@@PAVAlfAttributeContainer@2@PAVIAlfMap@2@@Z @ 239 NONAME ; void Alf::AlfImageVisualAttributeSetter::setAttributeValue(class CAlfVisual &, class Alf::AlfAttributeContainer *, class Alf::IAlfMap *)
	??0CAlfWidgetControl@Alf@@QAE@AAVCAlfEnv@@@Z @ 240 NONAME ; Alf::CAlfWidgetControl::CAlfWidgetControl(class CAlfEnv &)
	?count@AlfMap@Alf@@UBEHXZ @ 241 NONAME ; int Alf::AlfMap::count(void) const
	?uinteger@AlfMap@Alf@@UBEIXZ @ 242 NONAME ; unsigned int Alf::AlfMap::uinteger(void) const
	?removeAndDestroyEventHandler@CAlfWidgetControl@Alf@@UAEXABVUString@osncore@@@Z @ 243 NONAME ; void Alf::CAlfWidgetControl::removeAndDestroyEventHandler(class osncore::UString const &)
	?map@AlfContainer@Alf@@UAEPAVIAlfMap@2@XZ @ 244 NONAME ; class Alf::IAlfMap * Alf::AlfContainer::map(void)
	?accept@AlfRecyclingGridElement@Alf@@UBE_NAAVCAlfWidgetControl@2@ABVTAlfEvent@@@Z @ 245 NONAME ; bool Alf::AlfRecyclingGridElement::accept(class Alf::CAlfWidgetControl &, class TAlfEvent const &) const
	?createAndSendCommands@AlfFlowLayoutAttributeSetter@Alf@@UAEXAAVCAlfVisual@@PAVAlfAttributeContainer@2@PAV3@@Z @ 246 NONAME ; void Alf::AlfFlowLayoutAttributeSetter::createAndSendCommands(class CAlfVisual &, class Alf::AlfAttributeContainer *, class CAlfVisual *)
	?widgetName@AlfWidget@Alf@@UBEPBDXZ @ 247 NONAME ; char const * Alf::AlfWidget::widgetName(void) const
	??0AlfElement@Alf@@IAE@XZ @ 248 NONAME ; Alf::AlfElement::AlfElement(void)
	?childRemoved@AlfGridLayoutManager@Alf@@UAEXPAVCAlfWidgetControl@2@@Z @ 249 NONAME ; void Alf::AlfGridLayoutManager::childRemoved(class Alf::CAlfWidgetControl *)
	??1AlfCurvePathLayoutAttributeSetter@Alf@@UAE@XZ @ 250 NONAME ; Alf::AlfCurvePathLayoutAttributeSetter::~AlfCurvePathLayoutAttributeSetter(void)
	?brush@AlfVisualTemplate@Alf@@UBEAAVCAlfBrush@@H@Z @ 251 NONAME ; class CAlfBrush & Alf::AlfVisualTemplate::brush(int) const
	?createCommand@AlfCurvePathLayoutAttributeSetter@Alf@@UAEPAVTAlfCommand@@AAVCAlfVisual@@PAVAlfAttributeContainer@2@PAVIAlfMap@2@HPAV4@@Z @ 252 NONAME ; class TAlfCommand * Alf::AlfCurvePathLayoutAttributeSetter::createCommand(class CAlfVisual &, class Alf::AlfAttributeContainer *, class Alf::IAlfMap *, int, class CAlfVisual *)
	?addTargetValue@AlfAttribute@Alf@@QAEXPAVAlfAttributeValueType@2@@Z @ 253 NONAME ; void Alf::AlfAttribute::addTargetValue(class Alf::AlfAttributeValueType *)
	?attributeContainer@AlfVisualTemplate@Alf@@UBEAAVAlfAttributeContainer@2@H@Z @ 254 NONAME ; class Alf::AlfAttributeContainer & Alf::AlfVisualTemplate::attributeContainer(int) const
	?getTime@AlfAttribute@Alf@@QBEHXZ @ 255 NONAME ; int Alf::AlfAttribute::getTime(void) const
	??0AlfAttributeValueType@Alf@@QAE@HW4TAlfUnit@@@Z @ 256 NONAME ; Alf::AlfAttributeValueType::AlfAttributeValueType(int, enum TAlfUnit)
	??8AlfContainer@Alf@@QBE_NABVIAlfVariantType@1@@Z @ 257 NONAME ; bool Alf::AlfContainer::operator==(class Alf::IAlfVariantType const &) const
	?realValue@AlfAttribute@Alf@@QBEMI@Z @ 258 NONAME ; float Alf::AlfAttribute::realValue(unsigned int) const
	?getNewData@AlfModelOperation@Alf@@QAEPAVIAlfVariantType@2@XZ @ 259 NONAME ; class Alf::IAlfVariantType * Alf::AlfModelOperation::getNewData(void)
	?customData@AlfVariantType@Alf@@UAEPAVIAlfModelBase@2@XZ @ 260 NONAME ; class Alf::IAlfModelBase * Alf::AlfVariantType::customData(void)
	?findElement@CAlfWidgetControl@Alf@@UAEPAVIAlfElement@2@PBD@Z @ 261 NONAME ; class Alf::IAlfElement * Alf::CAlfWidgetControl::findElement(char const *)
	?setAttributeValue@AlfCommonLayoutAttributeSetter@Alf@@UAEXAAVCAlfVisual@@PAVAlfAttributeContainer@2@PAVIAlfMap@2@@Z @ 262 NONAME ; void Alf::AlfCommonLayoutAttributeSetter::setAttributeValue(class CAlfVisual &, class Alf::AlfAttributeContainer *, class Alf::IAlfMap *)
	?newData@AlfModelOperation@Alf@@QBEAAVIAlfVariantType@2@XZ @ 263 NONAME ; class Alf::IAlfVariantType & Alf::AlfModelOperation::newData(void) const
	??1AlfTextVisualAttributeSetter@Alf@@UAE@XZ @ 264 NONAME ; Alf::AlfTextVisualAttributeSetter::~AlfTextVisualAttributeSetter(void)
	??0AlfMap@Alf@@QAE@XZ @ 265 NONAME ; Alf::AlfMap::AlfMap(void)
	??8AlfVariantType@Alf@@QBE_NABVIAlfVariantType@1@@Z @ 266 NONAME ; bool Alf::AlfVariantType::operator==(class Alf::IAlfVariantType const &) const
	?setAttributeValue@AlfLineVisualAttributeSetter@Alf@@UAEXAAVCAlfVisual@@PAVAlfAttributeContainer@2@PAVIAlfMap@2@@Z @ 267 NONAME ; void Alf::AlfLineVisualAttributeSetter::setAttributeValue(class CAlfVisual &, class Alf::AlfAttributeContainer *, class Alf::IAlfMap *)
	??1AlfGridLayoutAttributeSetter@Alf@@UAE@XZ @ 268 NONAME ; Alf::AlfGridLayoutAttributeSetter::~AlfGridLayoutAttributeSetter(void)
	?RelinquishFocus@CAlfWidgetControl@Alf@@QAEXXZ @ 269 NONAME ; void Alf::CAlfWidgetControl::RelinquishFocus(void)
	?makeInterface@AlfVisualTemplate@Alf@@UAEPAVIAlfInterfaceBase@2@ABUIfId@2@@Z @ 270 NONAME ; class Alf::IAlfInterfaceBase * Alf::AlfVisualTemplate::makeInterface(struct Alf::IfId const &)
	??1AlfWidget@Alf@@UAE@XZ @ 271 NONAME ; Alf::AlfWidget::~AlfWidget(void)
	?real@AlfVariantType@Alf@@UBENXZ @ 272 NONAME ; double Alf::AlfVariantType::real(void) const
	?OfferEventL@CAlfWidgetControl@Alf@@EAEHABVTAlfEvent@@@Z @ 273 NONAME ; int Alf::CAlfWidgetControl::OfferEventL(class TAlfEvent const &)
	?elementDataId@CAlfWidgetControl@Alf@@UAEIABVIAlfElement@2@II@Z @ 274 NONAME ; unsigned int Alf::CAlfWidgetControl::elementDataId(class Alf::IAlfElement const &, unsigned int, unsigned int)
	?setName@AlfVisualTemplate@Alf@@UAEXPBD@Z @ 275 NONAME ; void Alf::AlfVisualTemplate::setName(char const *)
	?removeAttribute@AlfAttributeContainer@Alf@@QAEXI@Z @ 276 NONAME ; void Alf::AlfAttributeContainer::removeAttribute(unsigned int)
	?offerEvent@AlfRecyclingGridElement@Alf@@UAE?AW4AlfEventStatus@2@AAVCAlfWidgetControl@2@ABVTAlfEvent@@@Z @ 277 NONAME ; enum Alf::AlfEventStatus Alf::AlfRecyclingGridElement::offerEvent(class Alf::CAlfWidgetControl &, class TAlfEvent const &)
	?createCommand@AlfDeckLayoutAttributeSetter@Alf@@UAEPAVTAlfCommand@@AAVCAlfVisual@@PAVAlfAttributeContainer@2@PAVIAlfMap@2@HPAV4@@Z @ 278 NONAME ; class TAlfCommand * Alf::AlfDeckLayoutAttributeSetter::createCommand(class CAlfVisual &, class Alf::AlfAttributeContainer *, class Alf::IAlfMap *, int, class CAlfVisual *)
	?create@AlfVisualTemplate@Alf@@SAPAV12@XZ @ 279 NONAME ; class Alf::AlfVisualTemplate * Alf::AlfVisualTemplate::create(void)
	??1AlfContainer@Alf@@UAE@XZ @ 280 NONAME ; Alf::AlfContainer::~AlfContainer(void)
	?setInterpolationStyle@AlfAttribute@Alf@@QAEXW4TAlfInterpolationStyle@@@Z @ 281 NONAME ; void Alf::AlfAttribute::setInterpolationStyle(enum TAlfInterpolationStyle)
	?getInterpolationStyle@AlfAttribute@Alf@@QBE?AW4TAlfInterpolationStyle@@XZ @ 282 NONAME ; enum TAlfInterpolationStyle Alf::AlfAttribute::getInterpolationStyle(void) const
	?setAttributeValue@AlfFlowLayoutAttributeSetter@Alf@@UAEXAAVCAlfVisual@@PAVAlfAttributeContainer@2@PAVIAlfMap@2@@Z @ 283 NONAME ; void Alf::AlfFlowLayoutAttributeSetter::setAttributeValue(class CAlfVisual &, class Alf::AlfAttributeContainer *, class Alf::IAlfMap *)
	?updateChildLayout@AlfLayoutManager@Alf@@UAEXPAVCAlfWidgetControl@2@@Z @ 284 NONAME ; void Alf::AlfLayoutManager::updateChildLayout(class Alf::CAlfWidgetControl *)
	?control@AlfWidget@Alf@@UBEPAVCAlfWidgetControl@2@XZ @ 285 NONAME ; class Alf::CAlfWidgetControl * Alf::AlfWidget::control(void) const
	?isContainer@CAlfWidgetControl@Alf@@QBE_NXZ @ 286 NONAME ; bool Alf::CAlfWidgetControl::isContainer(void) const
	??0AlfAttributeValueType@Alf@@QAE@ABVUString@osncore@@@Z @ 287 NONAME ; Alf::AlfAttributeValueType::AlfAttributeValueType(class osncore::UString const &)
	?addAttribute@AlfAttributeContainer@Alf@@QAEXPAVAlfAttribute@2@@Z @ 288 NONAME ; void Alf::AlfAttributeContainer::addAttribute(class Alf::AlfAttribute *)
	??1AlfLayoutManager@Alf@@UAE@XZ @ 289 NONAME ; Alf::AlfLayoutManager::~AlfLayoutManager(void)
	?setAttributeValue@AlfGridLayoutAttributeSetter@Alf@@UAEXAAVCAlfVisual@@PAVAlfAttributeContainer@2@PAVIAlfMap@2@@Z @ 290 NONAME ; void Alf::AlfGridLayoutAttributeSetter::setAttributeValue(class CAlfVisual &, class Alf::AlfAttributeContainer *, class Alf::IAlfMap *)
	?addWidgetStateOutput@AlfWidgetEventHandler@Alf@@QAEXABVUString@osncore@@II@Z @ 291 NONAME ; void Alf::AlfWidgetEventHandler::addWidgetStateOutput(class osncore::UString const &, unsigned int, unsigned int)
	?makeInterface@AlfWidget@Alf@@SAPAVIAlfInterfaceBase@2@PAV12@ABUIfId@2@@Z @ 292 NONAME ; class Alf::IAlfInterfaceBase * Alf::AlfWidget::makeInterface(class Alf::AlfWidget *, struct Alf::IfId const &)
	??0AlfAnchorLayoutAttributeSetter@Alf@@QAE@XZ @ 293 NONAME ; Alf::AlfAnchorLayoutAttributeSetter::AlfAnchorLayoutAttributeSetter(void)
	?string@AlfMap@Alf@@UBEABVUString@osncore@@XZ @ 294 NONAME ; class osncore::UString const & Alf::AlfMap::string(void) const
	?set@AlfMap@Alf@@UAEXAAVIAlfVariantType@2@@Z @ 295 NONAME ; void Alf::AlfMap::set(class Alf::IAlfVariantType &)
	??0AlfWidget@Alf@@QAE@PBDAAVIAlfContainerWidget@1@AAVCAlfEnv@@@Z @ 296 NONAME ; Alf::AlfWidget::AlfWidget(char const *, class Alf::IAlfContainerWidget &, class CAlfEnv &)
	??0AlfLayoutManager@Alf@@QAE@W4TAlfLayoutType@@@Z @ 297 NONAME ; Alf::AlfLayoutManager::AlfLayoutManager(enum TAlfLayoutType)
	?removePresentationEventHandlers@CAlfWidgetControl@Alf@@UAEXXZ @ 298 NONAME ; void Alf::CAlfWidgetControl::removePresentationEventHandlers(void)
	?setActiveStates@AlfRecyclingGridElement@Alf@@UAEXI@Z @ 299 NONAME ; void Alf::AlfRecyclingGridElement::setActiveStates(unsigned int)
	?addAnimationOutput@AlfWidgetEventHandler@Alf@@QAEXPAVAlfReferenceToVisual@2@0PAVIAlfAttributeSetter@2@PAVAlfAttributeContainer@2@II@Z @ 300 NONAME ; void Alf::AlfWidgetEventHandler::addAnimationOutput(class Alf::AlfReferenceToVisual *, class Alf::AlfReferenceToVisual *, class Alf::IAlfAttributeSetter *, class Alf::AlfAttributeContainer *, unsigned int, unsigned int)
	?removeTargetValue@AlfAttribute@Alf@@QAEXI@Z @ 301 NONAME ; void Alf::AlfAttribute::removeTargetValue(unsigned int)
	?create@AlfModelOperation@Alf@@SAPAV12@W4OperationType@12@HPAHPAVIAlfVariantType@2@ABVUString@osncore@@@Z @ 302 NONAME ; class Alf::AlfModelOperation * Alf::AlfModelOperation::create(enum Alf::AlfModelOperation::OperationType, int, int *, class Alf::IAlfVariantType *, class osncore::UString const &)
	?ContainerLayout@CAlfWidgetControl@Alf@@UBEPAVCAlfLayout@@PBVCAlfControl@@@Z @ 303 NONAME ; class CAlfLayout * Alf::CAlfWidgetControl::ContainerLayout(class CAlfControl const *) const
	?data@AlfModel@Alf@@UBEPAVIAlfVariantType@2@XZ @ 304 NONAME ; class Alf::IAlfVariantType * Alf::AlfModel::data(void) const
	?replaceItem@AlfContainer@Alf@@UAEXIPAVIAlfVariantType@2@@Z @ 305 NONAME ; void Alf::AlfContainer::replaceItem(unsigned int, class Alf::IAlfVariantType *)
	?numBrushes@AlfVisualTemplate@Alf@@UBEHXZ @ 306 NONAME ; int Alf::AlfVisualTemplate::numBrushes(void) const
	??0AlfAttribute@Alf@@QAE@PBDW4attributecategory@01@@Z @ 307 NONAME ; Alf::AlfAttribute::AlfAttribute(char const *, enum Alf::AlfAttribute::attributecategory)
	?doUpdateChildLayout@AlfLayoutManager@Alf@@MAEXPAVCAlfWidgetControl@2@@Z @ 308 NONAME ; void Alf::AlfLayoutManager::doUpdateChildLayout(class Alf::CAlfWidgetControl *)
	?type@AlfContainer@Alf@@UBE?AW4Type@IAlfVariantType@2@XZ @ 309 NONAME ; enum Alf::IAlfVariantType::Type Alf::AlfContainer::type(void) const
	?clone@AlfBranch@Alf@@UAEPAVIAlfBranch@2@XZ @ 310 NONAME ; class Alf::IAlfBranch * Alf::AlfBranch::clone(void)
	?setParentElement@AlfElement@Alf@@UAEXAAVIAlfElement@2@@Z @ 311 NONAME ; void Alf::AlfElement::setParentElement(class Alf::IAlfElement &)
	?setOwner@AlfVisualTemplate@Alf@@UAEXPAVIAlfElement@2@@Z @ 312 NONAME ; void Alf::AlfVisualTemplate::setOwner(class Alf::IAlfElement *)
	?addEventPasserOutput@AlfWidgetEventHandler@Alf@@QAEXPBD0@Z @ 313 NONAME ; void Alf::AlfWidgetEventHandler::addEventPasserOutput(char const *, char const *)
	?setTargetValue@AlfAttribute@Alf@@QAEXPAVAlfAttributeValueType@2@I@Z @ 314 NONAME ; void Alf::AlfAttribute::setTargetValue(class Alf::AlfAttributeValueType *, unsigned int)
	??8AlfBranch@Alf@@QBE_NABVIAlfVariantType@1@@Z @ 315 NONAME ; bool Alf::AlfBranch::operator==(class Alf::IAlfVariantType const &) const
	?container@AlfVariantType@Alf@@UAEPAVIAlfContainer@2@XZ @ 316 NONAME ; class Alf::IAlfContainer * Alf::AlfVariantType::container(void)
	?eventHandlerData@AlfRecyclingGridElement@Alf@@UAEPAUAlfWidgetEventHandlerInitData@2@XZ @ 317 NONAME ; struct Alf::AlfWidgetEventHandlerInitData * Alf::AlfRecyclingGridElement::eventHandlerData(void)
	?numElements@CAlfWidgetControl@Alf@@UBEHXZ @ 318 NONAME ; int Alf::CAlfWidgetControl::numElements(void) const
	?getLastFocusable@CAlfWidgetControl@Alf@@MAEPAV12@AAVIAlfContainerWidget@2@@Z @ 319 NONAME ; class Alf::CAlfWidgetControl * Alf::CAlfWidgetControl::getLastFocusable(class Alf::IAlfContainerWidget &)
	??1AlfFlowLayoutManager@Alf@@UAE@XZ @ 320 NONAME ; Alf::AlfFlowLayoutManager::~AlfFlowLayoutManager(void)
	?type@AlfVariantType@Alf@@UBE?AW4Type@IAlfVariantType@2@XZ @ 321 NONAME ; enum Alf::IAlfVariantType::Type Alf::AlfVariantType::type(void) const
	?disableState@CAlfWidgetControl@Alf@@UAEXI@Z @ 322 NONAME ; void Alf::CAlfWidgetControl::disableState(unsigned int)
	?count@AlfLayoutManager@Alf@@QBEHXZ @ 323 NONAME ; int Alf::AlfLayoutManager::count(void) const
	?setAnimationTimes@AlfRecyclingGridElement@Alf@@QAEXHHHHH@Z @ 324 NONAME ; void Alf::AlfRecyclingGridElement::setAnimationTimes(int, int, int, int, int)
	?removeAndDestroyPresentationEventHandlers@CAlfWidgetControl@Alf@@UAEXXZ @ 325 NONAME ; void Alf::CAlfWidgetControl::removeAndDestroyPresentationEventHandlers(void)
	?eventHandlerIndex@CAlfWidgetControl@Alf@@UBEHAAVIAlfWidgetEventHandler@2@@Z @ 326 NONAME ; int Alf::CAlfWidgetControl::eventHandlerIndex(class Alf::IAlfWidgetEventHandler &) const
	?addEventPasserOutput@AlfWidgetEventHandler@Alf@@QAEXPBD0HH@Z @ 327 NONAME ; void Alf::AlfWidgetEventHandler::addEventPasserOutput(char const *, char const *, int, int)
	?createCommand@AlfCommonLayoutAttributeSetter@Alf@@UAEPAVTAlfCommand@@AAVCAlfVisual@@PAVAlfAttributeContainer@2@PAVIAlfMap@2@HPAV4@@Z @ 328 NONAME ; class TAlfCommand * Alf::AlfCommonLayoutAttributeSetter::createCommand(class CAlfVisual &, class Alf::AlfAttributeContainer *, class Alf::IAlfMap *, int, class CAlfVisual *)
	?updateData@AlfModel@Alf@@UAEXHPAHPAVIAlfVariantType@2@@Z @ 329 NONAME ; void Alf::AlfModel::updateData(int, int *, class Alf::IAlfVariantType *)
	?addOutput@AlfWidgetEventHandler@Alf@@QAEXHHPBDI@Z @ 330 NONAME ; void Alf::AlfWidgetEventHandler::addOutput(int, int, char const *, unsigned int)
	?createCommand@AlfTextVisualAttributeSetter@Alf@@UAEPAVTAlfCommand@@AAVCAlfVisual@@PAVAlfAttributeContainer@2@PAVIAlfMap@2@HPAV4@@Z @ 331 NONAME ; class TAlfCommand * Alf::AlfTextVisualAttributeSetter::createCommand(class CAlfVisual &, class Alf::AlfAttributeContainer *, class Alf::IAlfMap *, int, class CAlfVisual *)
	??0AlfAnimationOutput@Alf@@QAE@PAVAlfReferenceToVisual@1@0PAVIAlfAttributeSetter@1@PAVAlfAttributeContainer@1@II@Z @ 332 NONAME ; Alf::AlfAnimationOutput::AlfAnimationOutput(class Alf::AlfReferenceToVisual *, class Alf::AlfReferenceToVisual *, class Alf::IAlfAttributeSetter *, class Alf::AlfAttributeContainer *, unsigned int, unsigned int)
	?data@AlfBranch@Alf@@UAEPAVIAlfMap@2@XZ @ 333 NONAME ; class Alf::IAlfMap * Alf::AlfBranch::data(void)
	??1AlfAttribute@Alf@@UAE@XZ @ 334 NONAME ; Alf::AlfAttribute::~AlfAttribute(void)
	?sort@AlfContainer@Alf@@UAEXABVIAlfSortFunction@2@@Z @ 335 NONAME ; void Alf::AlfContainer::sort(class Alf::IAlfSortFunction const &)
	?doUpdateChildLayout@AlfGridLayoutManager@Alf@@MAEXPAVCAlfWidgetControl@2@@Z @ 336 NONAME ; void Alf::AlfGridLayoutManager::doUpdateChildLayout(class Alf::CAlfWidgetControl *)
	?type@AlfAttributeContainer@Alf@@QBE?AW4Type@12@XZ @ 337 NONAME ; enum Alf::AlfAttributeContainer::Type Alf::AlfAttributeContainer::type(void) const
	?stringValue@AlfAttribute@Alf@@QBEABVUString@osncore@@I@Z @ 338 NONAME ; class osncore::UString const & Alf::AlfAttribute::stringValue(unsigned int) const
	?destroyChildTemplate@AlfVisualTemplate@Alf@@UAEXPBD@Z @ 339 NONAME ; void Alf::AlfVisualTemplate::destroyChildTemplate(char const *)
	?parentElement@AlfElement@Alf@@UBEPBVIAlfElement@2@XZ @ 340 NONAME ; class Alf::IAlfElement const * Alf::AlfElement::parentElement(void) const
	?addEventPasserInput@AlfWidgetEventHandler@Alf@@QAEXHH@Z @ 341 NONAME ; void Alf::AlfWidgetEventHandler::addEventPasserInput(int, int)
	?setControlPosition@AlfLayoutManager@Alf@@IAEXAAVCAlfWidgetControl@2@ABUTAlfRealPoint@@@Z @ 342 NONAME ; void Alf::AlfLayoutManager::setControlPosition(class Alf::CAlfWidgetControl &, struct TAlfRealPoint const &)
	??0AlfWidget@Alf@@IAE@XZ @ 343 NONAME ; Alf::AlfWidget::AlfWidget(void)
	?customData@AlfContainer@Alf@@UAEPAVIAlfModelBase@2@XZ @ 344 NONAME ; class Alf::IAlfModelBase * Alf::AlfContainer::customData(void)
	?addItem@AlfContainer@Alf@@UAEXPAVIAlfVariantType@2@@Z @ 345 NONAME ; void Alf::AlfContainer::addItem(class Alf::IAlfVariantType *)
	?updateChildLayout@AlfFlowLayoutManager@Alf@@UAEXPAVCAlfWidgetControl@2@@Z @ 346 NONAME ; void Alf::AlfFlowLayoutManager::updateChildLayout(class Alf::CAlfWidgetControl *)
	?isFocusable@CAlfWidgetControl@Alf@@QBE_NXZ @ 347 NONAME ; bool Alf::CAlfWidgetControl::isFocusable(void) const
	?clearModel@AlfModel@Alf@@UAEXXZ @ 348 NONAME ; void Alf::AlfModel::clearModel(void)
	?element@CAlfWidgetControl@Alf@@UAEAAVIAlfElement@2@H@Z @ 349 NONAME ; class Alf::IAlfElement & Alf::CAlfWidgetControl::element(int)
	??0AlfViewportLayoutAttributeSetter@Alf@@QAE@XZ @ 350 NONAME ; Alf::AlfViewportLayoutAttributeSetter::AlfViewportLayoutAttributeSetter(void)
	?removeWidget@AlfWidget@Alf@@QAEXAAVIAlfWidget@2@@Z @ 351 NONAME ; void Alf::AlfWidget::removeWidget(class Alf::IAlfWidget &)
	?realValue@AlfAttributeValueType@Alf@@UBEMXZ @ 352 NONAME ; float Alf::AlfAttributeValueType::realValue(void) const
	?handleEvent@CAlfWidgetControl@Alf@@UAE?AW4AlfEventStatus@2@ABVTAlfEvent@@@Z @ 353 NONAME ; enum Alf::AlfEventStatus Alf::CAlfWidgetControl::handleEvent(class TAlfEvent const &)
	?clone@AlfAttribute@Alf@@QAEPAV12@XZ @ 354 NONAME ; class Alf::AlfAttribute * Alf::AlfAttribute::clone(void)
	?setDataField@AlfAttribute@Alf@@QAEXPBD@Z @ 355 NONAME ; void Alf::AlfAttribute::setDataField(char const *)
	?childrenCount@AlfBranch@Alf@@UAEIXZ @ 356 NONAME ; unsigned int Alf::AlfBranch::childrenCount(void)
	?addAnimationCancelOutput@AlfWidgetEventHandler@Alf@@QAEXPBD0W4TAlfOp@@_N@Z @ 357 NONAME ; void Alf::AlfWidgetEventHandler::addAnimationCancelOutput(char const *, char const *, enum TAlfOp, bool)
	?container@AlfMap@Alf@@UAEPAVIAlfContainer@2@XZ @ 358 NONAME ; class Alf::IAlfContainer * Alf::AlfMap::container(void)
	??0AlfVisualTemplate@Alf@@IAE@W4TAlfLayoutType@@@Z @ 359 NONAME ; Alf::AlfVisualTemplate::AlfVisualTemplate(enum TAlfLayoutType)
	??0AlfMeshVisualAttributeSetter@Alf@@QAE@XZ @ 360 NONAME ; Alf::AlfMeshVisualAttributeSetter::AlfMeshVisualAttributeSetter(void)
	?setDefaultParentLayout@AlfElement@Alf@@QAEXPAVAlfReferenceToVisual@2@@Z @ 361 NONAME ; void Alf::AlfElement::setDefaultParentLayout(class Alf::AlfReferenceToVisual *)
	?clear@AlfMap@Alf@@UAEXXZ @ 362 NONAME ; void Alf::AlfMap::clear(void)
	?addTactileOutput@AlfWidgetEventHandler@Alf@@QAEXW4WidgetTactileFeedbackType@2@@Z @ 363 NONAME ; void Alf::AlfWidgetEventHandler::addTactileOutput(enum Alf::WidgetTactileFeedbackType)
	?setAttributeValue@AlfCurvePathLayoutAttributeSetter@Alf@@UAEXAAVCAlfVisual@@PAVAlfAttributeContainer@2@PAVIAlfMap@2@@Z @ 364 NONAME ; void Alf::AlfCurvePathLayoutAttributeSetter::setAttributeValue(class CAlfVisual &, class Alf::AlfAttributeContainer *, class Alf::IAlfMap *)
	?addModelChangeObserver@AlfModel@Alf@@UAEXAAVIAlfModelChangeObserver@2@@Z @ 365 NONAME ; void Alf::AlfModel::addModelChangeObserver(class Alf::IAlfModelChangeObserver &)
	?resolve@AlfReferenceToVisual@Alf@@QAEPAVCAlfVisual@@AAVCAlfWidgetControl@2@I@Z @ 366 NONAME ; class CAlfVisual * Alf::AlfReferenceToVisual::resolve(class Alf::CAlfWidgetControl &, unsigned int)
	?updateChildLayout@AlfAnchorLayoutManager@Alf@@UAEXPAVCAlfWidgetControl@2@@Z @ 367 NONAME ; void Alf::AlfAnchorLayoutManager::updateChildLayout(class Alf::CAlfWidgetControl *)
	?makeInterface@AlfCommonAttributeSetter@Alf@@UAEPAVIAlfInterfaceBase@2@ABUIfId@2@@Z @ 368 NONAME ; class Alf::IAlfInterfaceBase * Alf::AlfCommonAttributeSetter::makeInterface(struct Alf::IfId const &)
	?createCommand@AlfCommonVisualAttributeSetter@Alf@@UAEPAVTAlfCommand@@AAVCAlfVisual@@PAVAlfAttributeContainer@2@PAVIAlfMap@2@HPAV4@@Z @ 369 NONAME ; class TAlfCommand * Alf::AlfCommonVisualAttributeSetter::createCommand(class CAlfVisual &, class Alf::AlfAttributeContainer *, class Alf::IAlfMap *, int, class CAlfVisual *)
	?create@AlfReferenceToVisual@Alf@@SAPAV12@PBD0_N@Z @ 370 NONAME ; class Alf::AlfReferenceToVisual * Alf::AlfReferenceToVisual::create(char const *, char const *, bool)
	?createAndSendCommands@AlfCommonLayoutAttributeSetter@Alf@@UAEXAAVCAlfVisual@@PAVAlfAttributeContainer@2@PAV3@@Z @ 371 NONAME ; void Alf::AlfCommonLayoutAttributeSetter::createAndSendCommands(class CAlfVisual &, class Alf::AlfAttributeContainer *, class CAlfVisual *)
	?destroyVisualsAndElements@CAlfWidgetControl@Alf@@UAEXH@Z @ 372 NONAME ; void Alf::CAlfWidgetControl::destroyVisualsAndElements(int)
	?setDataIdRange@CAlfWidgetControl@Alf@@UAEXABVIAlfElement@2@I@Z @ 373 NONAME ; void Alf::CAlfWidgetControl::setDataIdRange(class Alf::IAlfElement const &, unsigned int)
	?createCommand@AlfCommonAttributeSetter@Alf@@UAEPAVTAlfCommand@@AAVCAlfVisual@@PAVAlfAttributeContainer@2@PAVIAlfMap@2@HPAV4@@Z @ 374 NONAME ; class TAlfCommand * Alf::AlfCommonAttributeSetter::createCommand(class CAlfVisual &, class Alf::AlfAttributeContainer *, class Alf::IAlfMap *, int, class CAlfVisual *)
	?childData@AlfBranch@Alf@@UAEPAVIAlfMap@2@XZ @ 375 NONAME ; class Alf::IAlfMap * Alf::AlfBranch::childData(void)
	?setChildFocus@AlfWidget@Alf@@UAEX_N@Z @ 376 NONAME ; void Alf::AlfWidget::setChildFocus(bool)
	?getTargetValueCount@AlfAttribute@Alf@@QBEIXZ @ 377 NONAME ; unsigned int Alf::AlfAttribute::getTargetValueCount(void) const
	?addAttributeSetter@AlfVisualTemplate@Alf@@UAEXPAVIAlfAttributeSetter@2@PAVAlfAttributeContainer@2@@Z @ 378 NONAME ; void Alf::AlfVisualTemplate::addAttributeSetter(class Alf::IAlfAttributeSetter *, class Alf::AlfAttributeContainer *)
	?state@CAlfWidgetControl@Alf@@UBEIXZ @ 379 NONAME ; unsigned int Alf::CAlfWidgetControl::state(void) const
	?operation@AlfModelOperation@Alf@@QBE?AW4OperationType@12@XZ @ 380 NONAME ; enum Alf::AlfModelOperation::OperationType Alf::AlfModelOperation::operation(void) const
	?removeItem@AlfMap@Alf@@UAEXABVUString@osncore@@@Z @ 381 NONAME ; void Alf::AlfMap::removeItem(class osncore::UString const &)
	?getVisualTemplate@AlfElement@Alf@@UBEPAVIAlfVisualTemplate@2@XZ @ 382 NONAME ; class Alf::IAlfVisualTemplate * Alf::AlfElement::getVisualTemplate(void) const
	?itemIndex@AlfMap@Alf@@UAEHABVUString@osncore@@@Z @ 383 NONAME ; int Alf::AlfMap::itemIndex(class osncore::UString const &)
	??1AlfElement@Alf@@UAE@XZ @ 384 NONAME ; Alf::AlfElement::~AlfElement(void)
	??0AlfAttributeContainer@Alf@@QAE@W4Type@01@@Z @ 385 NONAME ; Alf::AlfAttributeContainer::AlfAttributeContainer(enum Alf::AlfAttributeContainer::Type)
	?removeAndDestroyVisuals@AlfElement@Alf@@UAEXH@Z @ 386 NONAME ; void Alf::AlfElement::removeAndDestroyVisuals(int)
	?executeOperation@AlfModel@Alf@@UAEXPAVAlfModelOperation@2@@Z @ 387 NONAME ; void Alf::AlfModel::executeOperation(class Alf::AlfModelOperation *)
	?getWidgetIndex@AlfWidget@Alf@@UBEHAAVIAlfWidget@2@@Z @ 388 NONAME ; int Alf::AlfWidget::getWidgetIndex(class Alf::IAlfWidget &) const
	??0AlfFlowLayoutManager@Alf@@QAE@XZ @ 389 NONAME ; Alf::AlfFlowLayoutManager::AlfFlowLayoutManager(void)
	?addWidgetAttributeOutput@AlfWidgetEventHandler@Alf@@QAEXAAVUString@osncore@@PAVAlfAttributeValueType@2@PBD@Z @ 390 NONAME ; void Alf::AlfWidgetEventHandler::addWidgetAttributeOutput(class osncore::UString &, class Alf::AlfAttributeValueType *, char const *)
	?addData@AlfModel@Alf@@UAEXHPAHPAVIAlfVariantType@2@@Z @ 391 NONAME ; void Alf::AlfModel::addData(int, int *, class Alf::IAlfVariantType *)
	?addChildTemplate@AlfVisualTemplate@Alf@@UAEXAAVIAlfVisualTemplate@2@@Z @ 392 NONAME ; void Alf::AlfVisualTemplate::addChildTemplate(class Alf::IAlfVisualTemplate &)
	?clear@AlfContainer@Alf@@UAEXXZ @ 393 NONAME ; void Alf::AlfContainer::clear(void)
	??4AlfAttribute@Alf@@QAEAAV01@ABV01@@Z @ 394 NONAME ; class Alf::AlfAttribute & Alf::AlfAttribute::operator=(class Alf::AlfAttribute const &)
	?name@AlfAttribute@Alf@@QBEPBDXZ @ 395 NONAME ; char const * Alf::AlfAttribute::name(void) const
	?createAndSendCommands@AlfGridLayoutAttributeSetter@Alf@@UAEXAAVCAlfVisual@@PAVAlfAttributeContainer@2@PAV3@@Z @ 396 NONAME ; void Alf::AlfGridLayoutAttributeSetter::createAndSendCommands(class CAlfVisual &, class Alf::AlfAttributeContainer *, class CAlfVisual *)
	?removeChildVisualTree@AlfElement@Alf@@UAEXPAVIAlfElement@2@AAVIAlfBranch@2@HI@Z @ 397 NONAME ; void Alf::AlfElement::removeChildVisualTree(class Alf::IAlfElement *, class Alf::IAlfBranch &, int, unsigned int)
	?parent@AlfWidget@Alf@@UBEPAVIAlfContainerWidget@2@XZ @ 398 NONAME ; class Alf::IAlfContainerWidget * Alf::AlfWidget::parent(void) const
	?addSourceValue@AlfAttribute@Alf@@QAEXPAVAlfAttributeValueType@2@@Z @ 399 NONAME ; void Alf::AlfAttribute::addSourceValue(class Alf::AlfAttributeValueType *)
	?FocusChanged@CAlfWidgetControl@Alf@@MAEXAAVCAlfDisplay@@H@Z @ 400 NONAME ; void Alf::CAlfWidgetControl::FocusChanged(class CAlfDisplay &, int)
	?makeInterface@AlfElement@Alf@@UAEPAVIAlfInterfaceBase@2@ABUIfId@2@@Z @ 401 NONAME ; class Alf::IAlfInterfaceBase * Alf::AlfElement::makeInterface(struct Alf::IfId const &)
	?addAppEventOutput@AlfWidgetEventHandler@Alf@@QAEXABVUString@osncore@@AAVIAlfAppEventListener@2@@Z @ 402 NONAME ; void Alf::AlfWidgetEventHandler::addAppEventOutput(class osncore::UString const &, class Alf::IAlfAppEventListener &)
	?defaultParentLayout@AlfElement@Alf@@UAEPAVCAlfLayout@@I@Z @ 403 NONAME ; class CAlfLayout * Alf::AlfElement::defaultParentLayout(unsigned int)
	?setControlRect@AlfLayoutManager@Alf@@IAEXAAVCAlfWidgetControl@2@ABUTAlfRealRect@@@Z @ 404 NONAME ; void Alf::AlfLayoutManager::setControlRect(class Alf::CAlfWidgetControl &, struct TAlfRealRect const &)
	?makeInterface@AlfRecyclingGridElement@Alf@@UAEPAVIAlfInterfaceBase@2@ABUIfId@2@@Z @ 405 NONAME ; class Alf::IAlfInterfaceBase * Alf::AlfRecyclingGridElement::makeInterface(struct Alf::IfId const &)
	?previousFocusableControl@CAlfWidgetControl@Alf@@AAEPAV12@PAV12@@Z @ 406 NONAME ; class Alf::CAlfWidgetControl * Alf::CAlfWidgetControl::previousFocusableControl(class Alf::CAlfWidgetControl *)
	?setChildData@AlfBranch@Alf@@UAEXPAVIAlfMap@2@@Z @ 407 NONAME ; void Alf::AlfBranch::setChildData(class Alf::IAlfMap *)
	?setControl@AlfWidget@Alf@@UAEXPAVCAlfWidgetControl@2@_N@Z @ 408 NONAME ; void Alf::AlfWidget::setControl(class Alf::CAlfWidgetControl *, bool)
	??2CAlfWidgetControl@Alf@@SAPAXIW4newarg@@@Z @ 409 NONAME ; void * Alf::CAlfWidgetControl::operator new(unsigned int, enum newarg)
	?enableState@CAlfWidgetControl@Alf@@UAEXI@Z @ 410 NONAME ; void Alf::CAlfWidgetControl::enableState(unsigned int)
	?themeManagerUtil@AlfWidgetEnvExtension@Alf@@SAAAVAlfThemeManagerUtil@2@AAVCAlfEnv@@@Z @ 411 NONAME ; class Alf::AlfThemeManagerUtil & Alf::AlfWidgetEnvExtension::themeManagerUtil(class CAlfEnv &)
	??1AlfMeshVisualAttributeSetter@Alf@@UAE@XZ @ 412 NONAME ; Alf::AlfMeshVisualAttributeSetter::~AlfMeshVisualAttributeSetter(void)
	?createLayout@AlfLayoutManager@Alf@@UAEXAAVCAlfWidgetControl@2@PAVCAlfLayout@@H@Z @ 413 NONAME ; void Alf::AlfLayoutManager::createLayout(class Alf::CAlfWidgetControl &, class CAlfLayout *, int)
	?sendCommand@AlfAnimationOutput@Alf@@QAEXAAVCAlfWidgetControl@2@I@Z @ 414 NONAME ; void Alf::AlfAnimationOutput::sendCommand(class Alf::CAlfWidgetControl &, unsigned int)
	??0AlfBranch@Alf@@QAE@XZ @ 415 NONAME ; Alf::AlfBranch::AlfBranch(void)
	?set@AlfBranch@Alf@@UAEXAAVIAlfVariantType@2@@Z @ 416 NONAME ; void Alf::AlfBranch::set(class Alf::IAlfVariantType &)
	?unit@AlfAttribute@Alf@@UBE?AW4TAlfUnit@@I@Z @ 417 NONAME ; enum TAlfUnit Alf::AlfAttribute::unit(unsigned int) const
	?resolve@AlfReferenceToVisual@Alf@@QAEPAVCAlfVisual@@AAVCAlfWidgetControl@2@PAV3@@Z @ 418 NONAME ; class CAlfVisual * Alf::AlfReferenceToVisual::resolve(class Alf::CAlfWidgetControl &, class CAlfVisual *)
	?real@AlfBranch@Alf@@UBENXZ @ 419 NONAME ; double Alf::AlfBranch::real(void) const
	?layoutType@AlfVisualTemplate@Alf@@UBEHXZ @ 420 NONAME ; int Alf::AlfVisualTemplate::layoutType(void) const
	?contains@AlfElement@Alf@@UBE_NAAVCAlfVisual@@@Z @ 421 NONAME ; bool Alf::AlfElement::contains(class CAlfVisual &) const
	?boolean@AlfMap@Alf@@UBE_NXZ @ 422 NONAME ; bool Alf::AlfMap::boolean(void) const
	?create@AlfVisualTemplate@Alf@@SAPAV12@W4TAlfLayoutType@@@Z @ 423 NONAME ; class Alf::AlfVisualTemplate * Alf::AlfVisualTemplate::create(enum TAlfLayoutType)
	?construct@AlfElement@Alf@@IAEXAAVCAlfWidgetControl@2@PBD@Z @ 424 NONAME ; void Alf::AlfElement::construct(class Alf::CAlfWidgetControl &, char const *)
	?createCommand@AlfAnchorLayoutAttributeSetter@Alf@@UAEPAVTAlfCommand@@AAVCAlfVisual@@PAVAlfAttributeContainer@2@PAVIAlfMap@2@HPAV4@@Z @ 425 NONAME ; class TAlfCommand * Alf::AlfAnchorLayoutAttributeSetter::createCommand(class CAlfVisual &, class Alf::AlfAttributeContainer *, class Alf::IAlfMap *, int, class CAlfVisual *)
	?removeAndDestroyEventHandler@CAlfWidgetControl@Alf@@UAEXAAVIAlfWidgetEventHandler@2@@Z @ 426 NONAME ; void Alf::CAlfWidgetControl::removeAndDestroyEventHandler(class Alf::IAlfWidgetEventHandler &)
	?getFocusableAfter@CAlfWidgetControl@Alf@@MAEPAV12@AAVIAlfContainerWidget@2@AAV12@@Z @ 427 NONAME ; class Alf::CAlfWidgetControl * Alf::CAlfWidgetControl::getFocusableAfter(class Alf::IAlfContainerWidget &, class Alf::CAlfWidgetControl &)
	??1AlfModel@Alf@@UAE@XZ @ 428 NONAME ; Alf::AlfModel::~AlfModel(void)
	?containerIndex@AlfModelOperation@Alf@@QBEHH@Z @ 429 NONAME ; int Alf::AlfModelOperation::containerIndex(int) const
	?updateDataIDs@AlfElement@Alf@@UAEXAAVIAlfBranch@2@HHII@Z @ 430 NONAME ; void Alf::AlfElement::updateDataIDs(class Alf::IAlfBranch &, int, int, unsigned int, unsigned int)
	?controlRect@AlfLayoutManager@Alf@@IAE_NAAVCAlfWidgetControl@2@AAUTAlfRealRect@@@Z @ 431 NONAME ; bool Alf::AlfLayoutManager::controlRect(class Alf::CAlfWidgetControl &, struct TAlfRealRect &)
	?setterType@AlfCommonAttributeSetter@Alf@@UAE?AW4SetterType@@XZ @ 432 NONAME ; enum SetterType Alf::AlfCommonAttributeSetter::setterType(void)
	?enableDirtyCheck@AlfCommonAttributeSetter@Alf@@QAEX_N@Z @ 433 NONAME ; void Alf::AlfCommonAttributeSetter::enableDirtyCheck(bool)
	?removeVisualTemplate@AlfElement@Alf@@UAEPAVIAlfVisualTemplate@2@XZ @ 434 NONAME ; class Alf::IAlfVisualTemplate * Alf::AlfElement::removeVisualTemplate(void)
	??0AlfCommonVisualAttributeSetter@Alf@@QAE@XZ @ 435 NONAME ; Alf::AlfCommonVisualAttributeSetter::AlfCommonVisualAttributeSetter(void)
	?dataChanging@CAlfWidgetControl@Alf@@UAEXABVAlfModelOperation@2@@Z @ 436 NONAME ; void Alf::CAlfWidgetControl::dataChanging(class Alf::AlfModelOperation const &)
	?applyLayout@AlfWidget@Alf@@UAEXAAVIAlfLayoutManager@2@@Z @ 437 NONAME ; void Alf::AlfWidget::applyLayout(class Alf::IAlfLayoutManager &)
	?dataChanging@CAlfWidgetControl@Alf@@UAEXABV?$AlfPtrVector@VAlfModelOperation@Alf@@@osncore@@@Z @ 438 NONAME ; void Alf::CAlfWidgetControl::dataChanging(class osncore::AlfPtrVector<class Alf::AlfModelOperation> const &)
	?branch@AlfBranch@Alf@@UAEPAVIAlfBranch@2@XZ @ 439 NONAME ; class Alf::IAlfBranch * Alf::AlfBranch::branch(void)
	?dataChanged@CAlfWidgetControl@Alf@@UAEXXZ @ 440 NONAME ; void Alf::CAlfWidgetControl::dataChanged(void)
	??0AlfVariantType@Alf@@QAE@PAVIAlfModelBase@1@@Z @ 441 NONAME ; Alf::AlfVariantType::AlfVariantType(class Alf::IAlfModelBase *)
	?parentData@AlfModelOperation@Alf@@QBEPAVIAlfVariantType@2@AAV32@@Z @ 442 NONAME ; class Alf::IAlfVariantType * Alf::AlfModelOperation::parentData(class Alf::IAlfVariantType &) const
	?createAndSendCommands@AlfLineVisualAttributeSetter@Alf@@UAEXAAVCAlfVisual@@PAVAlfAttributeContainer@2@PAV3@@Z @ 443 NONAME ; void Alf::AlfLineVisualAttributeSetter::createAndSendCommands(class CAlfVisual &, class Alf::AlfAttributeContainer *, class CAlfVisual *)
	?createCommand@AlfMeshVisualAttributeSetter@Alf@@UAEPAVTAlfCommand@@AAVCAlfVisual@@PAVAlfAttributeContainer@2@PAVIAlfMap@2@HPAV4@@Z @ 444 NONAME ; class TAlfCommand * Alf::AlfMeshVisualAttributeSetter::createCommand(class CAlfVisual &, class Alf::AlfAttributeContainer *, class Alf::IAlfMap *, int, class CAlfVisual *)
	??1AlfCommonAttributeSetter@Alf@@UAE@XZ @ 445 NONAME ; Alf::AlfCommonAttributeSetter::~AlfCommonAttributeSetter(void)
	??0AlfModel@Alf@@QAE@XZ @ 446 NONAME ; Alf::AlfModel::AlfModel(void)
	?boolean@AlfBranch@Alf@@UBE_NXZ @ 447 NONAME ; bool Alf::AlfBranch::boolean(void) const
	??1AlfImageVisualAttributeSetter@Alf@@UAE@XZ @ 448 NONAME ; Alf::AlfImageVisualAttributeSetter::~AlfImageVisualAttributeSetter(void)
	?getDelay@AlfAttribute@Alf@@QBEHXZ @ 449 NONAME ; int Alf::AlfAttribute::getDelay(void) const
	?item@AlfContainer@Alf@@UAEPAVIAlfVariantType@2@I@Z @ 450 NONAME ; class Alf::IAlfVariantType * Alf::AlfContainer::item(unsigned int)
	?updateParentLayout@CAlfWidgetControl@Alf@@QAEXXZ @ 451 NONAME ; void Alf::CAlfWidgetControl::updateParentLayout(void)
	?createAndSendCommands@AlfTextVisualAttributeSetter@Alf@@UAEXAAVCAlfVisual@@PAVAlfAttributeContainer@2@PAV3@@Z @ 452 NONAME ; void Alf::AlfTextVisualAttributeSetter::createAndSendCommands(class CAlfVisual &, class Alf::AlfAttributeContainer *, class CAlfVisual *)
	?create@AlfModelOperation@Alf@@SAPAV12@W4OperationType@12@HPAHPAVIAlfVariantType@2@@Z @ 453 NONAME ; class Alf::AlfModelOperation * Alf::AlfModelOperation::create(enum Alf::AlfModelOperation::OperationType, int, int *, class Alf::IAlfVariantType *)
	??0AlfDeckLayoutAttributeSetter@Alf@@QAE@XZ @ 454 NONAME ; Alf::AlfDeckLayoutAttributeSetter::AlfDeckLayoutAttributeSetter(void)
	?createAndSendCommands@AlfDeckLayoutAttributeSetter@Alf@@UAEXAAVCAlfVisual@@PAVAlfAttributeContainer@2@PAV3@@Z @ 455 NONAME ; void Alf::AlfDeckLayoutAttributeSetter::createAndSendCommands(class CAlfVisual &, class Alf::AlfAttributeContainer *, class CAlfVisual *)
	?elementData@CAlfWidgetControl@Alf@@UAEPAVIAlfVariantType@2@ABVIAlfElement@2@I@Z @ 456 NONAME ; class Alf::IAlfVariantType * Alf::CAlfWidgetControl::elementData(class Alf::IAlfElement const &, unsigned int)
	??1AlfAnchorLayoutAttributeSetter@Alf@@UAE@XZ @ 457 NONAME ; Alf::AlfAnchorLayoutAttributeSetter::~AlfAnchorLayoutAttributeSetter(void)
	?createCommand@AlfImageVisualAttributeSetter@Alf@@UAEPAVTAlfCommand@@AAVCAlfVisual@@PAVAlfAttributeContainer@2@PAVIAlfMap@2@HPAV4@@Z @ 458 NONAME ; class TAlfCommand * Alf::AlfImageVisualAttributeSetter::createCommand(class CAlfVisual &, class Alf::AlfAttributeContainer *, class Alf::IAlfMap *, int, class CAlfVisual *)
	?newDataName@AlfModelOperation@Alf@@QBEABVUString@osncore@@XZ @ 459 NONAME ; class osncore::UString const & Alf::AlfModelOperation::newDataName(void) const
	?widgetFactory@AlfWidgetEnvExtension@Alf@@SAAAVIAlfWidgetFactory@2@AAVCAlfEnv@@@Z @ 460 NONAME ; class Alf::IAlfWidgetFactory & Alf::AlfWidgetEnvExtension::widgetFactory(class CAlfEnv &)
	?name@AlfElement@Alf@@UBEPBDXZ @ 461 NONAME ; char const * Alf::AlfElement::name(void) const
	?setVisualTemplate@AlfElement@Alf@@UAEXAAVIAlfVisualTemplate@2@@Z @ 462 NONAME ; void Alf::AlfElement::setVisualTemplate(class Alf::IAlfVisualTemplate &)
	?clone@AlfMap@Alf@@UAEPAVIAlfMap@2@XZ @ 463 NONAME ; class Alf::IAlfMap * Alf::AlfMap::clone(void)
	?owner@AlfVisualTemplate@Alf@@UBEPAVIAlfElement@2@XZ @ 464 NONAME ; class Alf::IAlfElement * Alf::AlfVisualTemplate::owner(void) const
	?removeModelChangeObserver@AlfModel@Alf@@UAEXAAVIAlfModelChangeObserver@2@@Z @ 465 NONAME ; void Alf::AlfModel::removeModelChangeObserver(class Alf::IAlfModelChangeObserver &)
	?getControl@AlfLayoutManager@Alf@@QBEPAVCAlfWidgetControl@2@H@Z @ 466 NONAME ; class Alf::CAlfWidgetControl * Alf::AlfLayoutManager::getControl(int) const

