EXPORTS
	??0CGestureControl@GestureHelper@@IAE@XZ @ 1 NONAME ; GestureHelper::CGestureControl::CGestureControl(void)
	??1CGestureControl@GestureHelper@@UAE@XZ @ 2 NONAME ; GestureHelper::CGestureControl::~CGestureControl(void)
	??1CGestureHelper@GestureHelper@@UAE@XZ @ 3 NONAME ; GestureHelper::CGestureHelper::~CGestureHelper(void)
	?Cancel@CGestureHelper@GestureHelper@@QAEXXZ @ 4 NONAME ; void GestureHelper::CGestureHelper::Cancel(void)
	?ConstructL@CGestureControl@GestureHelper@@IAEXAAVMGestureObserver@2@AAVCAlfEnv@@AAVCAlfDisplay@@H@Z @ 5 NONAME ; void GestureHelper::CGestureControl::ConstructL(class GestureHelper::MGestureObserver &, class CAlfEnv &, class CAlfDisplay &, int)
	?HandlePointerEventL@CGestureHelper@GestureHelper@@QAEHABUTPointerEvent@@@Z @ 6 NONAME ; int GestureHelper::CGestureHelper::HandlePointerEventL(struct TPointerEvent const &)
	?InitAlfredPointerCaptureL@CGestureHelper@GestureHelper@@QAEXAAVCAlfEnv@@AAVCAlfDisplay@@H@Z @ 7 NONAME ; void GestureHelper::CGestureHelper::InitAlfredPointerCaptureL(class CAlfEnv &, class CAlfDisplay &, int)
	?IsHoldingEnabled@CGestureControl@GestureHelper@@QBEHXZ @ 8 NONAME ; int GestureHelper::CGestureControl::IsHoldingEnabled(void) const
	?IsHoldingEnabled@CGestureHelper@GestureHelper@@QBEHXZ @ 9 NONAME ; int GestureHelper::CGestureHelper::IsHoldingEnabled(void) const
	?NewL@CGestureHelper@GestureHelper@@SAPAV12@AAVMGestureObserver@2@@Z @ 10 NONAME ; class GestureHelper::CGestureHelper * GestureHelper::CGestureHelper::NewL(class GestureHelper::MGestureObserver &)
	?NewLC@CGestureControl@GestureHelper@@SAPAV12@AAVMGestureObserver@2@AAVCAlfEnv@@AAVCAlfDisplay@@H@Z @ 11 NONAME ; class GestureHelper::CGestureControl * GestureHelper::CGestureControl::NewLC(class GestureHelper::MGestureObserver &, class CAlfEnv &, class CAlfDisplay &, int)
	?OfferEventL@CGestureControl@GestureHelper@@UAEHABVTAlfEvent@@@Z @ 12 NONAME ; int GestureHelper::CGestureControl::OfferEventL(class TAlfEvent const &)
	?OfferEventL@CGestureHelper@GestureHelper@@QAEHABVTAlfEvent@@@Z @ 13 NONAME ; int GestureHelper::CGestureHelper::OfferEventL(class TAlfEvent const &)
	?SetHoldingEnabled@CGestureControl@GestureHelper@@QAEXH@Z @ 14 NONAME ; void GestureHelper::CGestureControl::SetHoldingEnabled(int)
	?SetHoldingEnabled@CGestureHelper@GestureHelper@@QAEXH@Z @ 15 NONAME ; void GestureHelper::CGestureHelper::SetHoldingEnabled(int)
	?VisualByCoordinates@HitTest@GestureHelper@@SAPAVCAlfVisual@@ABVCAlfControl@@ABVTPoint@@@Z @ 16 NONAME ; class CAlfVisual * GestureHelper::HitTest::VisualByCoordinates(class CAlfControl const &, class TPoint const &)
	?IsDoubleTapEnabled@CGestureControl@GestureHelper@@QBEHXZ @ 17 NONAME ; int GestureHelper::CGestureControl::IsDoubleTapEnabled(void) const
	?IsDoubleTapEnabled@CGestureHelper@GestureHelper@@QBEHXZ @ 18 NONAME ; int GestureHelper::CGestureHelper::IsDoubleTapEnabled(void) const
	?SetDoubleTapEnabled@CGestureControl@GestureHelper@@QAEXH@Z @ 19 NONAME ; void GestureHelper::CGestureControl::SetDoubleTapEnabled(int)
	?SetDoubleTapEnabled@CGestureHelper@GestureHelper@@QAEXH@Z @ 20 NONAME ; void GestureHelper::CGestureHelper::SetDoubleTapEnabled(int)
	?AddObserver@CGestureHelper@GestureHelper@@QAEXPAVMGestureObserver@2@@Z @ 21 NONAME ; void GestureHelper::CGestureHelper::AddObserver(class GestureHelper::MGestureObserver *)

