EXPORTS
	_ZN3Alf22AlfFactoryPluginLoader17loadFactoryPluginEPKc @ 1 NONAME
	_ZN3Alf22AlfFactoryPluginLoaderC1Ev @ 2 NONAME
	_ZN3Alf22AlfFactoryPluginLoaderC2Ev @ 3 NONAME
	_ZN3Alf22AlfFactoryPluginLoaderD0Ev @ 4 NONAME
	_ZN3Alf22AlfFactoryPluginLoaderD1Ev @ 5 NONAME
	_ZN3Alf22AlfFactoryPluginLoaderD2Ev @ 6 NONAME
	_ZN3Alf22AlfWidgetFactoryLoader17loadWidgetFactoryER7CAlfEnv @ 7 NONAME
	_ZN3Alf22AlfWidgetFactoryLoaderC1Ev @ 8 NONAME
	_ZN3Alf22AlfWidgetFactoryLoaderC2Ev @ 9 NONAME
	_ZN3Alf22AlfWidgetFactoryLoaderD0Ev @ 10 NONAME
	_ZN3Alf22AlfWidgetFactoryLoaderD1Ev @ 11 NONAME
	_ZN3Alf22AlfWidgetFactoryLoaderD2Ev @ 12 NONAME
	_ZN7osncore12AlfExceptionC1Ei @ 13 NONAME
	_ZN7osncore12AlfExceptionC1EiPKc @ 14 NONAME
	_ZN7osncore12AlfExceptionC1EiPKcS2_ @ 15 NONAME
	_ZN7osncore12AlfExceptionC2Ei @ 16 NONAME
	_ZN7osncore12AlfExceptionC2EiPKc @ 17 NONAME
	_ZN7osncore12AlfExceptionC2EiPKcS2_ @ 18 NONAME
	_ZN7osncore12AlfExceptionD0Ev @ 19 NONAME
	_ZN7osncore12AlfExceptionD1Ev @ 20 NONAME
	_ZN7osncore12AlfExceptionD2Ev @ 21 NONAME
	_ZN7osncore16AlfDataExceptionC1Ei @ 22 NONAME
	_ZN7osncore16AlfDataExceptionC1EiPKcS2_ @ 23 NONAME
	_ZN7osncore16AlfDataExceptionC2Ei @ 24 NONAME
	_ZN7osncore16AlfDataExceptionC2EiPKcS2_ @ 25 NONAME
	_ZN7osncore16AlfDataExceptionD0Ev @ 26 NONAME
	_ZN7osncore16AlfDataExceptionD1Ev @ 27 NONAME
	_ZN7osncore16AlfDataExceptionD2Ev @ 28 NONAME
	_ZN7osncore18AlfVisualExceptionC1Ei @ 29 NONAME
	_ZN7osncore18AlfVisualExceptionC1EiPKcS2_ @ 30 NONAME
	_ZN7osncore18AlfVisualExceptionC2Ei @ 31 NONAME
	_ZN7osncore18AlfVisualExceptionC2EiPKcS2_ @ 32 NONAME
	_ZN7osncore18AlfVisualExceptionD0Ev @ 33 NONAME
	_ZN7osncore18AlfVisualExceptionD1Ev @ 34 NONAME
	_ZN7osncore18AlfVisualExceptionD2Ev @ 35 NONAME
	_ZN7osncore18AlfWidgetExceptionC1Ei @ 36 NONAME
	_ZN7osncore18AlfWidgetExceptionC1EiPKcS2_ @ 37 NONAME
	_ZN7osncore18AlfWidgetExceptionC2Ei @ 38 NONAME
	_ZN7osncore18AlfWidgetExceptionC2EiPKcS2_ @ 39 NONAME
	_ZN7osncore18AlfWidgetExceptionD0Ev @ 40 NONAME
	_ZN7osncore18AlfWidgetExceptionD1Ev @ 41 NONAME
	_ZN7osncore18AlfWidgetExceptionD2Ev @ 42 NONAME
	_ZN7osncore19AlfElementExceptionC1Ei @ 43 NONAME
	_ZN7osncore19AlfElementExceptionC1EiPKcS2_ @ 44 NONAME
	_ZN7osncore19AlfElementExceptionC2Ei @ 45 NONAME
	_ZN7osncore19AlfElementExceptionC2EiPKcS2_ @ 46 NONAME
	_ZN7osncore19AlfElementExceptionD0Ev @ 47 NONAME
	_ZN7osncore19AlfElementExceptionD1Ev @ 48 NONAME
	_ZN7osncore19AlfElementExceptionD2Ev @ 49 NONAME
	_ZN7osncore21AlfAttributeExceptionC1Ei @ 50 NONAME
	_ZN7osncore21AlfAttributeExceptionC1EiPKcS2_ @ 51 NONAME
	_ZN7osncore21AlfAttributeExceptionC2Ei @ 52 NONAME
	_ZN7osncore21AlfAttributeExceptionC2EiPKcS2_ @ 53 NONAME
	_ZN7osncore21AlfAttributeExceptionD0Ev @ 54 NONAME
	_ZN7osncore21AlfAttributeExceptionD1Ev @ 55 NONAME
	_ZN7osncore21AlfAttributeExceptionD2Ev @ 56 NONAME
	_ZNK7osncore12AlfException11fileAndLineEv @ 57 NONAME
	_ZNK7osncore12AlfException4infoEv @ 58 NONAME
	_ZNK7osncore12AlfException4whatEv @ 59 NONAME
	_ZNK7osncore12AlfException9errorCodeEv @ 60 NONAME
	_ZNK7osncore16AlfDataException4whatEv @ 61 NONAME
	_ZNK7osncore18AlfVisualException4whatEv @ 62 NONAME
	_ZNK7osncore18AlfWidgetException4whatEv @ 63 NONAME
	_ZNK7osncore19AlfElementException4whatEv @ 64 NONAME
	_ZNK7osncore21AlfAttributeException4whatEv @ 65 NONAME
	_ZTIN3Alf22AlfFactoryPluginLoaderE @ 66 NONAME ; #<TI>#
	_ZTIN3Alf22AlfWidgetFactoryLoaderE @ 67 NONAME ; #<TI>#
	_ZTIN3Alf26AlfFactoryPluginLoaderImplE @ 68 NONAME ; #<TI>#
	_ZTIN3Alf26AlfWidgetFactoryLoaderImplE @ 69 NONAME ; #<TI>#
	_ZTIN7osncore12AlfExceptionE @ 70 NONAME ; #<TI>#
	_ZTIN7osncore16AlfDataExceptionE @ 71 NONAME ; #<TI>#
	_ZTIN7osncore18AlfVisualExceptionE @ 72 NONAME ; #<TI>#
	_ZTIN7osncore18AlfWidgetExceptionE @ 73 NONAME ; #<TI>#
	_ZTIN7osncore19AlfElementExceptionE @ 74 NONAME ; #<TI>#
	_ZTIN7osncore21AlfAttributeExceptionE @ 75 NONAME ; #<TI>#
	_ZTVN3Alf22AlfFactoryPluginLoaderE @ 76 NONAME ; #<VT>#
	_ZTVN3Alf22AlfWidgetFactoryLoaderE @ 77 NONAME ; #<VT>#
	_ZTVN3Alf26AlfFactoryPluginLoaderImplE @ 78 NONAME ; #<VT>#
	_ZTVN3Alf26AlfWidgetFactoryLoaderImplE @ 79 NONAME ; #<VT>#
	_ZTVN7osncore12AlfExceptionE @ 80 NONAME ; #<VT>#
	_ZTVN7osncore16AlfDataExceptionE @ 81 NONAME ; #<VT>#
	_ZTVN7osncore18AlfVisualExceptionE @ 82 NONAME ; #<VT>#
	_ZTVN7osncore18AlfWidgetExceptionE @ 83 NONAME ; #<VT>#
	_ZTVN7osncore19AlfElementExceptionE @ 84 NONAME ; #<VT>#
	_ZTVN7osncore21AlfAttributeExceptionE @ 85 NONAME ; #<VT>#

