EXPORTS
	_ZN3Alf10AlfElement10findVisualEPKcj @ 1 NONAME
	_ZN3Alf10AlfElement10findVisualEj @ 2 NONAME
	_ZN3Alf10AlfElement13addVisualTreeEP10CAlfVisualj @ 3 NONAME
	_ZN3Alf10AlfElement13makeInterfaceERKNS_4IfIdE @ 4 NONAME
	_ZN3Alf10AlfElement13updateDataIDsERNS_10IAlfBranchEiijj @ 5 NONAME
	_ZN3Alf10AlfElement16createVisualTreeERNS_15IAlfVariantTypeERNS_10IAlfBranchEijP10CAlfLayouti @ 6 NONAME
	_ZN3Alf10AlfElement16createVisualTreeERNS_15IAlfVariantTypeEjP10CAlfLayouti @ 7 NONAME
	_ZN3Alf10AlfElement16removeVisualTreeERNS_10IAlfBranchEij @ 8 NONAME
	_ZN3Alf10AlfElement16removeVisualTreeERNS_15IAlfVariantTypeEj @ 9 NONAME
	_ZN3Alf10AlfElement16setParentElementERNS_11IAlfElementE @ 10 NONAME
	_ZN3Alf10AlfElement16updateVisualTreeERNS_15IAlfVariantTypeES2_j @ 11 NONAME
	_ZN3Alf10AlfElement17replaceVisualTreeERNS_15IAlfVariantTypeEjj @ 12 NONAME
	_ZN3Alf10AlfElement17setVisualTemplateERNS_18IAlfVisualTemplateE @ 13 NONAME
	_ZN3Alf10AlfElement19defaultParentLayoutEj @ 14 NONAME
	_ZN3Alf10AlfElement20removeVisualTemplateEv @ 15 NONAME
	_ZN3Alf10AlfElement21createChildVisualTreeEPNS_11IAlfElementERNS_15IAlfVariantTypeERNS_10IAlfBranchEij @ 16 NONAME
	_ZN3Alf10AlfElement21destroyVisualTemplateEv @ 17 NONAME
	_ZN3Alf10AlfElement21removeChildVisualTreeEPNS_11IAlfElementERNS_10IAlfBranchEij @ 18 NONAME
	_ZN3Alf10AlfElement22setDefaultParentLayoutEPNS_20AlfReferenceToVisualE @ 19 NONAME
	_ZN3Alf10AlfElement23removeAndDestroyVisualsEi @ 20 NONAME
	_ZN3Alf10AlfElement7controlEv @ 21 NONAME
	_ZN3Alf10AlfElement9constructERNS_17CAlfWidgetControlEPKc @ 22 NONAME
	_ZN3Alf10AlfElementC1ERNS_17CAlfWidgetControlEPKc @ 23 NONAME
	_ZN3Alf10AlfElementC1Ev @ 24 NONAME
	_ZN3Alf10AlfElementC2ERNS_17CAlfWidgetControlEPKc @ 25 NONAME
	_ZN3Alf10AlfElementC2Ev @ 26 NONAME
	_ZN3Alf10AlfElementD0Ev @ 27 NONAME
	_ZN3Alf10AlfElementD1Ev @ 28 NONAME
	_ZN3Alf10AlfElementD2Ev @ 29 NONAME
	_ZN3Alf12AlfAttribute12setDataFieldEPKc @ 30 NONAME
	_ZN3Alf12AlfAttribute14addSourceValueEPNS_21AlfAttributeValueTypeE @ 31 NONAME
	_ZN3Alf12AlfAttribute14addTargetValueEPNS_21AlfAttributeValueTypeE @ 32 NONAME
	_ZN3Alf12AlfAttribute14setSourceValueEPNS_21AlfAttributeValueTypeEj @ 33 NONAME
	_ZN3Alf12AlfAttribute14setTargetValueEPNS_21AlfAttributeValueTypeEj @ 34 NONAME
	_ZN3Alf12AlfAttribute17removeSourceValueEj @ 35 NONAME
	_ZN3Alf12AlfAttribute17removeTargetValueEj @ 36 NONAME
	_ZN3Alf12AlfAttribute20setMappingFunctionIdEi @ 37 NONAME
	_ZN3Alf12AlfAttribute21setInterpolationStyleE22TAlfInterpolationStyle @ 38 NONAME
	_ZN3Alf12AlfAttribute5cloneEv @ 39 NONAME
	_ZN3Alf12AlfAttribute7setTimeEi @ 40 NONAME
	_ZN3Alf12AlfAttribute8setDelayEi @ 41 NONAME
	_ZN3Alf12AlfAttribute8setDirtyEb @ 42 NONAME
	_ZN3Alf12AlfAttributeC1EPKcNS0_17attributecategoryE @ 43 NONAME
	_ZN3Alf12AlfAttributeC1EPKcRKN7osncore7UStringENS0_17attributecategoryE @ 44 NONAME
	_ZN3Alf12AlfAttributeC1EPKcf8TAlfUnitNS0_17attributecategoryE @ 45 NONAME
	_ZN3Alf12AlfAttributeC1EPKci8TAlfUnitNS0_17attributecategoryE @ 46 NONAME
	_ZN3Alf12AlfAttributeC1Ev @ 47 NONAME
	_ZN3Alf12AlfAttributeC2EPKcNS0_17attributecategoryE @ 48 NONAME
	_ZN3Alf12AlfAttributeC2EPKcRKN7osncore7UStringENS0_17attributecategoryE @ 49 NONAME
	_ZN3Alf12AlfAttributeC2EPKcf8TAlfUnitNS0_17attributecategoryE @ 50 NONAME
	_ZN3Alf12AlfAttributeC2EPKci8TAlfUnitNS0_17attributecategoryE @ 51 NONAME
	_ZN3Alf12AlfAttributeC2Ev @ 52 NONAME
	_ZN3Alf12AlfAttributeD0Ev @ 53 NONAME
	_ZN3Alf12AlfAttributeD1Ev @ 54 NONAME
	_ZN3Alf12AlfAttributeD2Ev @ 55 NONAME
	_ZN3Alf12AlfAttributeaSERKS0_ @ 56 NONAME
	_ZN3Alf12AlfContainer10customDataEv @ 57 NONAME
	_ZN3Alf12AlfContainer10removeItemEj @ 58 NONAME
	_ZN3Alf12AlfContainer11replaceItemEjPNS_15IAlfVariantTypeE @ 59 NONAME
	_ZN3Alf12AlfContainer3mapEv @ 60 NONAME
	_ZN3Alf12AlfContainer3setERNS_15IAlfVariantTypeE @ 61 NONAME
	_ZN3Alf12AlfContainer4itemEj @ 62 NONAME
	_ZN3Alf12AlfContainer4sortERKNS_16IAlfSortFunctionE @ 63 NONAME
	_ZN3Alf12AlfContainer5clearEv @ 64 NONAME
	_ZN3Alf12AlfContainer5cloneEv @ 65 NONAME
	_ZN3Alf12AlfContainer5countEv @ 66 NONAME
	_ZN3Alf12AlfContainer6branchEv @ 67 NONAME
	_ZN3Alf12AlfContainer7addItemEPNS_15IAlfVariantTypeE @ 68 NONAME
	_ZN3Alf12AlfContainer7addItemEjPNS_15IAlfVariantTypeE @ 69 NONAME
	_ZN3Alf12AlfContainer9containerEv @ 70 NONAME
	_ZN3Alf12AlfContainerC1Ev @ 71 NONAME
	_ZN3Alf12AlfContainerC2Ev @ 72 NONAME
	_ZN3Alf12AlfContainerD0Ev @ 73 NONAME
	_ZN3Alf12AlfContainerD1Ev @ 74 NONAME
	_ZN3Alf12AlfContainerD2Ev @ 75 NONAME
	_ZN3Alf14AlfHostAPIImpl13makeInterfaceERKNS_4IfIdE @ 76 NONAME
	_ZN3Alf14AlfVariantType10customDataEv @ 77 NONAME
	_ZN3Alf14AlfVariantType3mapEv @ 78 NONAME
	_ZN3Alf14AlfVariantType3setERNS_15IAlfVariantTypeE @ 79 NONAME
	_ZN3Alf14AlfVariantType6branchEv @ 80 NONAME
	_ZN3Alf14AlfVariantType9containerEv @ 81 NONAME
	_ZN3Alf14AlfVariantTypeC1EPNS_13IAlfModelBaseE @ 82 NONAME
	_ZN3Alf14AlfVariantTypeC1ERKN7osncore7UStringE @ 83 NONAME
	_ZN3Alf14AlfVariantTypeC1ERKb @ 84 NONAME
	_ZN3Alf14AlfVariantTypeC1ERKd @ 85 NONAME
	_ZN3Alf14AlfVariantTypeC1ERKi @ 86 NONAME
	_ZN3Alf14AlfVariantTypeC1ERKj @ 87 NONAME
	_ZN3Alf14AlfVariantTypeC1Ev @ 88 NONAME
	_ZN3Alf14AlfVariantTypeC2EPNS_13IAlfModelBaseE @ 89 NONAME
	_ZN3Alf14AlfVariantTypeC2ERKN7osncore7UStringE @ 90 NONAME
	_ZN3Alf14AlfVariantTypeC2ERKb @ 91 NONAME
	_ZN3Alf14AlfVariantTypeC2ERKd @ 92 NONAME
	_ZN3Alf14AlfVariantTypeC2ERKi @ 93 NONAME
	_ZN3Alf14AlfVariantTypeC2ERKj @ 94 NONAME
	_ZN3Alf14AlfVariantTypeC2Ev @ 95 NONAME
	_ZN3Alf14AlfVariantTypeD0Ev @ 96 NONAME
	_ZN3Alf14AlfVariantTypeD1Ev @ 97 NONAME
	_ZN3Alf14AlfVariantTypeD2Ev @ 98 NONAME
	_ZN3Alf16AlfLayoutManager11controlRectERNS_17CAlfWidgetControlER12TAlfRealRect @ 99 NONAME
	_ZN3Alf16AlfLayoutManager12childRemovedEPNS_17CAlfWidgetControlE @ 100 NONAME
	_ZN3Alf16AlfLayoutManager12createLayoutERNS_17CAlfWidgetControlEP10CAlfLayouti @ 101 NONAME
	_ZN3Alf16AlfLayoutManager13makeInterfaceERKNS_4IfIdE @ 102 NONAME
	_ZN3Alf16AlfLayoutManager14setControlRectERNS_17CAlfWidgetControlERK12TAlfRealRect @ 103 NONAME
	_ZN3Alf16AlfLayoutManager14setControlSizeERNS_17CAlfWidgetControlERK13TAlfRealPoint @ 104 NONAME
	_ZN3Alf16AlfLayoutManager17updateChildLayoutEPNS_17CAlfWidgetControlE @ 105 NONAME
	_ZN3Alf16AlfLayoutManager18setControlPositionERNS_17CAlfWidgetControlERK13TAlfRealPoint @ 106 NONAME
	_ZN3Alf16AlfLayoutManager19doUpdateChildLayoutEPNS_17CAlfWidgetControlE @ 107 NONAME
	_ZN3Alf16AlfLayoutManager20updateChildrenLayoutEv @ 108 NONAME
	_ZN3Alf16AlfLayoutManagerC1E14TAlfLayoutType @ 109 NONAME
	_ZN3Alf16AlfLayoutManagerC2E14TAlfLayoutType @ 110 NONAME
	_ZN3Alf16AlfLayoutManagerD0Ev @ 111 NONAME
	_ZN3Alf16AlfLayoutManagerD1Ev @ 112 NONAME
	_ZN3Alf16AlfLayoutManagerD2Ev @ 113 NONAME
	_ZN3Alf17AlfModelOperation10getNewDataEv @ 114 NONAME
	_ZN3Alf17AlfModelOperation6createENS0_13OperationTypeEiPiPNS_15IAlfVariantTypeE @ 115 NONAME
	_ZN3Alf17AlfModelOperation6createENS0_13OperationTypeEiPiPNS_15IAlfVariantTypeERKN7osncore7UStringE @ 116 NONAME
	_ZN3Alf17AlfModelOperationD1Ev @ 117 NONAME
	_ZN3Alf17AlfModelOperationD2Ev @ 118 NONAME
	_ZN3Alf17AlfVisualTemplate13makeInterfaceERKNS_4IfIdE @ 119 NONAME
	_ZN3Alf17AlfVisualTemplate13setLayoutTypeE14TAlfLayoutType @ 120 NONAME
	_ZN3Alf17AlfVisualTemplate13setVisualTypeE14TAlfVisualType @ 121 NONAME
	_ZN3Alf17AlfVisualTemplate16addChildTemplateERNS_18IAlfVisualTemplateE @ 122 NONAME
	_ZN3Alf17AlfVisualTemplate16createVisualTreeER11CAlfControlPNS_7IAlfMapEP10CAlfLayouti @ 123 NONAME
	_ZN3Alf17AlfVisualTemplate16updateVisualTreeEPNS_7IAlfMapES2_R10CAlfVisual @ 124 NONAME
	_ZN3Alf17AlfVisualTemplate18addAttributeSetterEPNS_19IAlfAttributeSetterEPNS_21AlfAttributeContainerE @ 125 NONAME
	_ZN3Alf17AlfVisualTemplate18setSelectChildModeEbRKN7osncore7UStringE @ 126 NONAME
	_ZN3Alf17AlfVisualTemplate19insertChildTemplateERNS_18IAlfVisualTemplateEi @ 127 NONAME
	_ZN3Alf17AlfVisualTemplate20destroyChildTemplateEPKc @ 128 NONAME
	_ZN3Alf17AlfVisualTemplate20destroyChildTemplateEi @ 129 NONAME
	_ZN3Alf17AlfVisualTemplate6createE14TAlfLayoutType @ 130 NONAME
	_ZN3Alf17AlfVisualTemplate6createE14TAlfVisualType @ 131 NONAME
	_ZN3Alf17AlfVisualTemplate6createEv @ 132 NONAME
	_ZN3Alf17AlfVisualTemplate7setNameEPKc @ 133 NONAME
	_ZN3Alf17AlfVisualTemplate8addBrushER9CAlfBrush @ 134 NONAME
	_ZN3Alf17AlfVisualTemplate8setOwnerEPNS_11IAlfElementE @ 135 NONAME
	_ZN3Alf17AlfVisualTemplate9setParentEPNS_18IAlfVisualTemplateE @ 136 NONAME
	_ZN3Alf17AlfVisualTemplateC1E14TAlfLayoutType @ 137 NONAME
	_ZN3Alf17AlfVisualTemplateC1E14TAlfVisualType @ 138 NONAME
	_ZN3Alf17AlfVisualTemplateC1Ev @ 139 NONAME
	_ZN3Alf17AlfVisualTemplateC2E14TAlfLayoutType @ 140 NONAME
	_ZN3Alf17AlfVisualTemplateC2E14TAlfVisualType @ 141 NONAME
	_ZN3Alf17AlfVisualTemplateC2Ev @ 142 NONAME
	_ZN3Alf17AlfVisualTemplateD0Ev @ 143 NONAME
	_ZN3Alf17AlfVisualTemplateD1Ev @ 144 NONAME
	_ZN3Alf17AlfVisualTemplateD2Ev @ 145 NONAME
	_ZN3Alf17CAlfWidgetControl10addElementEPNS_11IAlfElementE @ 146 NONAME
	_ZN3Alf17CAlfWidgetControl11OfferEventLERK9TAlfEvent @ 147 NONAME
	_ZN3Alf17CAlfWidgetControl11dataChangedEv @ 148 NONAME
	_ZN3Alf17CAlfWidgetControl11dataIdRangeERKNS_11IAlfElementE @ 149 NONAME
	_ZN3Alf17CAlfWidgetControl11elementDataERKNS_11IAlfElementEj @ 150 NONAME
	_ZN3Alf17CAlfWidgetControl11enableStateEj @ 151 NONAME
	_ZN3Alf17CAlfWidgetControl11findElementEPKc @ 152 NONAME
	_ZN3Alf17CAlfWidgetControl11handleEventERK9TAlfEvent @ 153 NONAME
	_ZN3Alf17CAlfWidgetControl12AcquireFocusEv @ 154 NONAME
	_ZN3Alf17CAlfWidgetControl12FocusChangedER11CAlfDisplayi @ 155 NONAME
	_ZN3Alf17CAlfWidgetControl12dataChangingERKN7osncore12AlfPtrVectorINS_17AlfModelOperationEEE @ 156 NONAME
	_ZN3Alf17CAlfWidgetControl12dataChangingERKNS_17AlfModelOperationE @ 157 NONAME
	_ZN3Alf17CAlfWidgetControl12disableStateEj @ 158 NONAME
	_ZN3Alf17CAlfWidgetControl12eventHandlerEi @ 159 NONAME
	_ZN3Alf17CAlfWidgetControl12modelChangedERNS_9IAlfModelE @ 160 NONAME
	_ZN3Alf17CAlfWidgetControl12processEventERK9TAlfEvent @ 161 NONAME
	_ZN3Alf17CAlfWidgetControl13dataIdToIndexERKNS_11IAlfElementEj @ 162 NONAME
	_ZN3Alf17CAlfWidgetControl13elementDataIdERKNS_11IAlfElementEjj @ 163 NONAME
	_ZN3Alf17CAlfWidgetControl13makeInterfaceERKNS_4IfIdE @ 164 NONAME
	_ZN3Alf17CAlfWidgetControl13removeElementERKNS_11IAlfElementE @ 165 NONAME
	_ZN3Alf17CAlfWidgetControl14setDataIdRangeERKNS_11IAlfElementEj @ 166 NONAME
	_ZN3Alf17CAlfWidgetControl15RelinquishFocusEv @ 167 NONAME
	_ZN3Alf17CAlfWidgetControl15addEventHandlerEPNS_22IAlfWidgetEventHandlerEi @ 168 NONAME
	_ZN3Alf17CAlfWidgetControl15handleFocusNextEv @ 169 NONAME
	_ZN3Alf17CAlfWidgetControl16findEventHandlerERK9TAlfEvent @ 170 NONAME
	_ZN3Alf17CAlfWidgetControl16getLastFocusableERNS_19IAlfContainerWidgetE @ 171 NONAME
	_ZN3Alf17CAlfWidgetControl17getFirstFocusableERNS_19IAlfContainerWidgetE @ 172 NONAME
	_ZN3Alf17CAlfWidgetControl17getFocusableAfterERNS_19IAlfContainerWidgetERS0_ @ 173 NONAME
	_ZN3Alf17CAlfWidgetControl18getFocusableBeforeERNS_19IAlfContainerWidgetERS0_ @ 174 NONAME
	_ZN3Alf17CAlfWidgetControl18removeEventHandlerERNS_22IAlfWidgetEventHandlerE @ 175 NONAME
	_ZN3Alf17CAlfWidgetControl18updateParentLayoutEv @ 176 NONAME
	_ZN3Alf17CAlfWidgetControl18updatePresentationEv @ 177 NONAME
	_ZN3Alf17CAlfWidgetControl19destroyPresentationEi @ 178 NONAME
	_ZN3Alf17CAlfWidgetControl19handleFocusPreviousEv @ 179 NONAME
	_ZN3Alf17CAlfWidgetControl19parentElementDataIdERKNS_11IAlfElementEj @ 180 NONAME
	_ZN3Alf17CAlfWidgetControl20nextFocusableControlEPS0_ @ 181 NONAME
	_ZN3Alf17CAlfWidgetControl23removeAndDestroyElementERKNS_11IAlfElementE @ 182 NONAME
	_ZN3Alf17CAlfWidgetControl24previousFocusableControlEPS0_ @ 183 NONAME
	_ZN3Alf17CAlfWidgetControl25destroyVisualsAndElementsEi @ 184 NONAME
	_ZN3Alf17CAlfWidgetControl28removeAndDestroyEventHandlerERKN7osncore7UStringE @ 185 NONAME
	_ZN3Alf17CAlfWidgetControl28removeAndDestroyEventHandlerERNS_22IAlfWidgetEventHandlerE @ 186 NONAME
	_ZN3Alf17CAlfWidgetControl31removePresentationEventHandlersEv @ 187 NONAME
	_ZN3Alf17CAlfWidgetControl41removeAndDestroyPresentationEventHandlersEv @ 188 NONAME
	_ZN3Alf17CAlfWidgetControl6widgetEv @ 189 NONAME
	_ZN3Alf17CAlfWidgetControl7elementEi @ 190 NONAME
	_ZN3Alf17CAlfWidgetControl8setStateEj @ 191 NONAME
	_ZN3Alf17CAlfWidgetControl9constructER7CAlfEnv @ 192 NONAME
	_ZN3Alf17CAlfWidgetControlC1ER7CAlfEnv @ 193 NONAME
	_ZN3Alf17CAlfWidgetControlC1Ev @ 194 NONAME
	_ZN3Alf17CAlfWidgetControlC2ER7CAlfEnv @ 195 NONAME
	_ZN3Alf17CAlfWidgetControlC2Ev @ 196 NONAME
	_ZN3Alf17CAlfWidgetControlD0Ev @ 197 NONAME
	_ZN3Alf17CAlfWidgetControlD1Ev @ 198 NONAME
	_ZN3Alf17CAlfWidgetControlD2Ev @ 199 NONAME
	_ZN3Alf17CAlfWidgetControlnwEj6newarg @ 200 NONAME
	_ZN3Alf18AlfAnimationOutput11sendCommandERNS_17CAlfWidgetControlEj @ 201 NONAME
	_ZN3Alf18AlfAnimationOutputC1EPNS_20AlfReferenceToVisualES2_PNS_19IAlfAttributeSetterEPNS_21AlfAttributeContainerEjj @ 202 NONAME
	_ZN3Alf18AlfAnimationOutputC2EPNS_20AlfReferenceToVisualES2_PNS_19IAlfAttributeSetterEPNS_21AlfAttributeContainerEjj @ 203 NONAME
	_ZN3Alf18AlfAnimationOutputD1Ev @ 204 NONAME
	_ZN3Alf18AlfAnimationOutputD2Ev @ 205 NONAME
	_ZN3Alf20AlfFlowLayoutManager13makeInterfaceERKNS_4IfIdE @ 206 NONAME
	_ZN3Alf20AlfFlowLayoutManager17updateChildLayoutEPNS_17CAlfWidgetControlE @ 207 NONAME
	_ZN3Alf20AlfFlowLayoutManagerC1Ev @ 208 NONAME
	_ZN3Alf20AlfFlowLayoutManagerC2Ev @ 209 NONAME
	_ZN3Alf20AlfFlowLayoutManagerD0Ev @ 210 NONAME
	_ZN3Alf20AlfFlowLayoutManagerD1Ev @ 211 NONAME
	_ZN3Alf20AlfFlowLayoutManagerD2Ev @ 212 NONAME
	_ZN3Alf20AlfGridLayoutManager12childRemovedEPNS_17CAlfWidgetControlE @ 213 NONAME
	_ZN3Alf20AlfGridLayoutManager13makeInterfaceERKNS_4IfIdE @ 214 NONAME
	_ZN3Alf20AlfGridLayoutManager17updateChildLayoutEPNS_17CAlfWidgetControlE @ 215 NONAME
	_ZN3Alf20AlfGridLayoutManager19doUpdateChildLayoutEPNS_17CAlfWidgetControlE @ 216 NONAME
	_ZN3Alf20AlfGridLayoutManagerC1Ev @ 217 NONAME
	_ZN3Alf20AlfGridLayoutManagerC2Ev @ 218 NONAME
	_ZN3Alf20AlfGridLayoutManagerD0Ev @ 219 NONAME
	_ZN3Alf20AlfGridLayoutManagerD1Ev @ 220 NONAME
	_ZN3Alf20AlfGridLayoutManagerD2Ev @ 221 NONAME
	_ZN3Alf20AlfReferenceToVisual6createEPKcS2_b @ 222 NONAME
	_ZN3Alf20AlfReferenceToVisual7resolveERNS_17CAlfWidgetControlEP10CAlfVisual @ 223 NONAME
	_ZN3Alf20AlfReferenceToVisual7resolveERNS_17CAlfWidgetControlEj @ 224 NONAME
	_ZN3Alf20AlfReferenceToVisualD1Ev @ 225 NONAME
	_ZN3Alf20AlfReferenceToVisualD2Ev @ 226 NONAME
	_ZN3Alf21AlfAttributeContainer12addAttributeEPNS_12AlfAttributeE @ 227 NONAME
	_ZN3Alf21AlfAttributeContainer15removeAttributeEj @ 228 NONAME
	_ZN3Alf21AlfAttributeContainer7setTimeEj @ 229 NONAME
	_ZN3Alf21AlfAttributeContainerC1ENS0_4TypeE @ 230 NONAME
	_ZN3Alf21AlfAttributeContainerC2ENS0_4TypeE @ 231 NONAME
	_ZN3Alf21AlfAttributeContainerD1Ev @ 232 NONAME
	_ZN3Alf21AlfAttributeContainerD2Ev @ 233 NONAME
	_ZN3Alf21AlfAttributeValueTypeC1ERKN7osncore7UStringE @ 234 NONAME
	_ZN3Alf21AlfAttributeValueTypeC1Ef8TAlfUnit @ 235 NONAME
	_ZN3Alf21AlfAttributeValueTypeC1Ei8TAlfUnit @ 236 NONAME
	_ZN3Alf21AlfAttributeValueTypeC2ERKN7osncore7UStringE @ 237 NONAME
	_ZN3Alf21AlfAttributeValueTypeC2Ef8TAlfUnit @ 238 NONAME
	_ZN3Alf21AlfAttributeValueTypeC2Ei8TAlfUnit @ 239 NONAME
	_ZN3Alf21AlfAttributeValueTypeD0Ev @ 240 NONAME
	_ZN3Alf21AlfAttributeValueTypeD1Ev @ 241 NONAME
	_ZN3Alf21AlfAttributeValueTypeD2Ev @ 242 NONAME
	_ZN3Alf21AlfWidgetEnvExtension12resourcePoolER7CAlfEnv @ 243 NONAME
	_ZN3Alf21AlfWidgetEnvExtension13widgetFactoryER7CAlfEnv @ 244 NONAME
	_ZN3Alf21AlfWidgetEnvExtension16themeManagerUtilER7CAlfEnv @ 245 NONAME
	_ZN3Alf21AlfWidgetEnvExtension21initializeEnvironmentER7CAlfEnv @ 246 NONAME
	_ZN3Alf21AlfWidgetEventHandler11addKeyInputEiNS_14EventTypeFlagsEj @ 247 NONAME
	_ZN3Alf21AlfWidgetEventHandler14addCustomInputEibi @ 248 NONAME
	_ZN3Alf21AlfWidgetEventHandler15addCancelOutputEPKcib @ 249 NONAME
	_ZN3Alf21AlfWidgetEventHandler15addPointerInputEPKcS2_NS_18WidgetPointerEventE @ 250 NONAME
	_ZN3Alf21AlfWidgetEventHandler16addTactileOutputENS_25WidgetTactileFeedbackTypeE @ 251 NONAME
	_ZN3Alf21AlfWidgetEventHandler17addAppEventOutputERKN7osncore7UStringERNS_20IAlfAppEventListenerE @ 252 NONAME
	_ZN3Alf21AlfWidgetEventHandler18addAnimationOutputEPNS_20AlfReferenceToVisualES2_PNS_19IAlfAttributeSetterEPNS_21AlfAttributeContainerEjj @ 253 NONAME
	_ZN3Alf21AlfWidgetEventHandler19addEventPasserInputEii @ 254 NONAME
	_ZN3Alf21AlfWidgetEventHandler20addEventPasserOutputEPKcS2_ @ 255 NONAME
	_ZN3Alf21AlfWidgetEventHandler20addEventPasserOutputEPKcS2_ii @ 256 NONAME
	_ZN3Alf21AlfWidgetEventHandler20addWidgetStateOutputERKN7osncore7UStringEjj @ 257 NONAME
	_ZN3Alf21AlfWidgetEventHandler23addWidgetAttributeInputERN7osncore7UStringEPNS_21AlfAttributeValueTypeEPKc @ 258 NONAME
	_ZN3Alf21AlfWidgetEventHandler24addAnimationCancelOutputEPKcS2_6TAlfOpb @ 259 NONAME
	_ZN3Alf21AlfWidgetEventHandler24addWidgetAttributeOutputERN7osncore7UStringEPNS_21AlfAttributeValueTypeEPKc @ 260 NONAME
	_ZN3Alf21AlfWidgetEventHandler24addWidgetAttributeOutputERNS_12AlfAttributeEPKc @ 261 NONAME
	_ZN3Alf21AlfWidgetEventHandler36addWidgetEventOutputSignalSubscriberERNS_31IAlfEventOutputSignalSubscriberE @ 262 NONAME
	_ZN3Alf21AlfWidgetEventHandler9addOutputEiiPKcj @ 263 NONAME
	_ZN3Alf21AlfWidgetEventHandlerC1ENS_22IAlfWidgetEventHandler19AlfEventHandlerTypeENS1_29AlfEventHandlerExecutionPhaseE @ 264 NONAME
	_ZN3Alf21AlfWidgetEventHandlerC2ENS_22IAlfWidgetEventHandler19AlfEventHandlerTypeENS1_29AlfEventHandlerExecutionPhaseE @ 265 NONAME
	_ZN3Alf22AlfAnchorLayoutManager12childRemovedEPNS_17CAlfWidgetControlE @ 266 NONAME
	_ZN3Alf22AlfAnchorLayoutManager13makeInterfaceERKNS_4IfIdE @ 267 NONAME
	_ZN3Alf22AlfAnchorLayoutManager17updateChildLayoutEPNS_17CAlfWidgetControlE @ 268 NONAME
	_ZN3Alf22AlfAnchorLayoutManager19doUpdateChildLayoutEPNS_17CAlfWidgetControlE @ 269 NONAME
	_ZN3Alf22AlfAnchorLayoutManagerC1Ev @ 270 NONAME
	_ZN3Alf22AlfAnchorLayoutManagerC2Ev @ 271 NONAME
	_ZN3Alf22AlfAnchorLayoutManagerD0Ev @ 272 NONAME
	_ZN3Alf22AlfAnchorLayoutManagerD1Ev @ 273 NONAME
	_ZN3Alf22AlfAnchorLayoutManagerD2Ev @ 274 NONAME
	_ZN3Alf23AlfRecyclingGridElement10offerEventERNS_17CAlfWidgetControlERK9TAlfEvent @ 275 NONAME
	_ZN3Alf23AlfRecyclingGridElement12setFillStyleENS0_9FillStyleEi @ 276 NONAME
	_ZN3Alf23AlfRecyclingGridElement13makeInterfaceERKNS_4IfIdE @ 277 NONAME
	_ZN3Alf23AlfRecyclingGridElement15setActiveStatesEj @ 278 NONAME
	_ZN3Alf23AlfRecyclingGridElement16createVisualTreeERNS_15IAlfVariantTypeEjP10CAlfLayouti @ 279 NONAME
	_ZN3Alf23AlfRecyclingGridElement16eventHandlerDataEv @ 280 NONAME
	_ZN3Alf23AlfRecyclingGridElement17setAnimationTimesEiiiii @ 281 NONAME
	_ZN3Alf23AlfRecyclingGridElement19setEventHandlerDataERKNS_29AlfWidgetEventHandlerInitDataE @ 282 NONAME
	_ZN3Alf23AlfRecyclingGridElement21createChildVisualTreeEPNS_11IAlfElementERNS_15IAlfVariantTypeERNS_10IAlfBranchEij @ 283 NONAME
	_ZN3Alf23AlfRecyclingGridElement21removeChildVisualTreeEPNS_11IAlfElementERNS_10IAlfBranchEij @ 284 NONAME
	_ZN3Alf23AlfRecyclingGridElementC1ERNS_17CAlfWidgetControlEPKcii @ 285 NONAME
	_ZN3Alf23AlfRecyclingGridElementC2ERNS_17CAlfWidgetControlEPKcii @ 286 NONAME
	_ZN3Alf23AlfRecyclingGridElementD0Ev @ 287 NONAME
	_ZN3Alf23AlfRecyclingGridElementD1Ev @ 288 NONAME
	_ZN3Alf23AlfRecyclingGridElementD2Ev @ 289 NONAME
	_ZN3Alf24AlfCommonAttributeSetter10setterTypeEv @ 290 NONAME
	_ZN3Alf24AlfCommonAttributeSetter13createCommandER10CAlfVisualPNS_21AlfAttributeContainerEPNS_7IAlfMapEiPS1_ @ 291 NONAME
	_ZN3Alf24AlfCommonAttributeSetter13makeInterfaceERKNS_4IfIdE @ 292 NONAME
	_ZN3Alf24AlfCommonAttributeSetter16enableDirtyCheckEb @ 293 NONAME
	_ZN3Alf24AlfCommonAttributeSetter17setAttributeValueER10CAlfVisualPNS_21AlfAttributeContainerEPNS_7IAlfMapE @ 294 NONAME
	_ZN3Alf24AlfCommonAttributeSetter21createAndSendCommandsER10CAlfVisualPNS_21AlfAttributeContainerEPS1_ @ 295 NONAME
	_ZN3Alf24AlfCommonAttributeSetterC1Ev @ 296 NONAME
	_ZN3Alf24AlfCommonAttributeSetterC2Ev @ 297 NONAME
	_ZN3Alf24AlfCommonAttributeSetterD0Ev @ 298 NONAME
	_ZN3Alf24AlfCommonAttributeSetterD1Ev @ 299 NONAME
	_ZN3Alf24AlfCommonAttributeSetterD2Ev @ 300 NONAME
	_ZN3Alf28AlfDeckLayoutAttributeSetter13createCommandER10CAlfVisualPNS_21AlfAttributeContainerEPNS_7IAlfMapEiPS1_ @ 301 NONAME
	_ZN3Alf28AlfDeckLayoutAttributeSetter17setAttributeValueER10CAlfVisualPNS_21AlfAttributeContainerEPNS_7IAlfMapE @ 302 NONAME
	_ZN3Alf28AlfDeckLayoutAttributeSetter21createAndSendCommandsER10CAlfVisualPNS_21AlfAttributeContainerEPS1_ @ 303 NONAME
	_ZN3Alf28AlfDeckLayoutAttributeSetterC1Ev @ 304 NONAME
	_ZN3Alf28AlfDeckLayoutAttributeSetterC2Ev @ 305 NONAME
	_ZN3Alf28AlfDeckLayoutAttributeSetterD0Ev @ 306 NONAME
	_ZN3Alf28AlfDeckLayoutAttributeSetterD1Ev @ 307 NONAME
	_ZN3Alf28AlfDeckLayoutAttributeSetterD2Ev @ 308 NONAME
	_ZN3Alf28AlfFlowLayoutAttributeSetter13createCommandER10CAlfVisualPNS_21AlfAttributeContainerEPNS_7IAlfMapEiPS1_ @ 309 NONAME
	_ZN3Alf28AlfFlowLayoutAttributeSetter17setAttributeValueER10CAlfVisualPNS_21AlfAttributeContainerEPNS_7IAlfMapE @ 310 NONAME
	_ZN3Alf28AlfFlowLayoutAttributeSetter21createAndSendCommandsER10CAlfVisualPNS_21AlfAttributeContainerEPS1_ @ 311 NONAME
	_ZN3Alf28AlfFlowLayoutAttributeSetterC1Ev @ 312 NONAME
	_ZN3Alf28AlfFlowLayoutAttributeSetterC2Ev @ 313 NONAME
	_ZN3Alf28AlfFlowLayoutAttributeSetterD0Ev @ 314 NONAME
	_ZN3Alf28AlfFlowLayoutAttributeSetterD1Ev @ 315 NONAME
	_ZN3Alf28AlfFlowLayoutAttributeSetterD2Ev @ 316 NONAME
	_ZN3Alf28AlfGridLayoutAttributeSetter13createCommandER10CAlfVisualPNS_21AlfAttributeContainerEPNS_7IAlfMapEiPS1_ @ 317 NONAME
	_ZN3Alf28AlfGridLayoutAttributeSetter17setAttributeValueER10CAlfVisualPNS_21AlfAttributeContainerEPNS_7IAlfMapE @ 318 NONAME
	_ZN3Alf28AlfGridLayoutAttributeSetter21createAndSendCommandsER10CAlfVisualPNS_21AlfAttributeContainerEPS1_ @ 319 NONAME
	_ZN3Alf28AlfGridLayoutAttributeSetterC1Ev @ 320 NONAME
	_ZN3Alf28AlfGridLayoutAttributeSetterC2Ev @ 321 NONAME
	_ZN3Alf28AlfGridLayoutAttributeSetterD0Ev @ 322 NONAME
	_ZN3Alf28AlfGridLayoutAttributeSetterD1Ev @ 323 NONAME
	_ZN3Alf28AlfGridLayoutAttributeSetterD2Ev @ 324 NONAME
	_ZN3Alf28AlfLineVisualAttributeSetter13createCommandER10CAlfVisualPNS_21AlfAttributeContainerEPNS_7IAlfMapEiPS1_ @ 325 NONAME
	_ZN3Alf28AlfLineVisualAttributeSetter17setAttributeValueER10CAlfVisualPNS_21AlfAttributeContainerEPNS_7IAlfMapE @ 326 NONAME
	_ZN3Alf28AlfLineVisualAttributeSetter21createAndSendCommandsER10CAlfVisualPNS_21AlfAttributeContainerEPS1_ @ 327 NONAME
	_ZN3Alf28AlfLineVisualAttributeSetterC1Ev @ 328 NONAME
	_ZN3Alf28AlfLineVisualAttributeSetterC2Ev @ 329 NONAME
	_ZN3Alf28AlfLineVisualAttributeSetterD0Ev @ 330 NONAME
	_ZN3Alf28AlfLineVisualAttributeSetterD1Ev @ 331 NONAME
	_ZN3Alf28AlfLineVisualAttributeSetterD2Ev @ 332 NONAME
	_ZN3Alf28AlfMeshVisualAttributeSetter13createCommandER10CAlfVisualPNS_21AlfAttributeContainerEPNS_7IAlfMapEiPS1_ @ 333 NONAME
	_ZN3Alf28AlfMeshVisualAttributeSetter17setAttributeValueER10CAlfVisualPNS_21AlfAttributeContainerEPNS_7IAlfMapE @ 334 NONAME
	_ZN3Alf28AlfMeshVisualAttributeSetter21createAndSendCommandsER10CAlfVisualPNS_21AlfAttributeContainerEPS1_ @ 335 NONAME
	_ZN3Alf28AlfMeshVisualAttributeSetterC1Ev @ 336 NONAME
	_ZN3Alf28AlfMeshVisualAttributeSetterC2Ev @ 337 NONAME
	_ZN3Alf28AlfMeshVisualAttributeSetterD0Ev @ 338 NONAME
	_ZN3Alf28AlfMeshVisualAttributeSetterD1Ev @ 339 NONAME
	_ZN3Alf28AlfMeshVisualAttributeSetterD2Ev @ 340 NONAME
	_ZN3Alf28AlfTextVisualAttributeSetter13createCommandER10CAlfVisualPNS_21AlfAttributeContainerEPNS_7IAlfMapEiPS1_ @ 341 NONAME
	_ZN3Alf28AlfTextVisualAttributeSetter17setAttributeValueER10CAlfVisualPNS_21AlfAttributeContainerEPNS_7IAlfMapE @ 342 NONAME
	_ZN3Alf28AlfTextVisualAttributeSetter21createAndSendCommandsER10CAlfVisualPNS_21AlfAttributeContainerEPS1_ @ 343 NONAME
	_ZN3Alf28AlfTextVisualAttributeSetterC1Ev @ 344 NONAME
	_ZN3Alf28AlfTextVisualAttributeSetterC2Ev @ 345 NONAME
	_ZN3Alf28AlfTextVisualAttributeSetterD0Ev @ 346 NONAME
	_ZN3Alf28AlfTextVisualAttributeSetterD1Ev @ 347 NONAME
	_ZN3Alf28AlfTextVisualAttributeSetterD2Ev @ 348 NONAME
	_ZN3Alf29AlfImageVisualAttributeSetter13createCommandER10CAlfVisualPNS_21AlfAttributeContainerEPNS_7IAlfMapEiPS1_ @ 349 NONAME
	_ZN3Alf29AlfImageVisualAttributeSetter17setAttributeValueER10CAlfVisualPNS_21AlfAttributeContainerEPNS_7IAlfMapE @ 350 NONAME
	_ZN3Alf29AlfImageVisualAttributeSetter21createAndSendCommandsER10CAlfVisualPNS_21AlfAttributeContainerEPS1_ @ 351 NONAME
	_ZN3Alf29AlfImageVisualAttributeSetterC1Ev @ 352 NONAME
	_ZN3Alf29AlfImageVisualAttributeSetterC2Ev @ 353 NONAME
	_ZN3Alf29AlfImageVisualAttributeSetterD0Ev @ 354 NONAME
	_ZN3Alf29AlfImageVisualAttributeSetterD1Ev @ 355 NONAME
	_ZN3Alf29AlfImageVisualAttributeSetterD2Ev @ 356 NONAME
	_ZN3Alf30AlfAnchorLayoutAttributeSetter13createCommandER10CAlfVisualPNS_21AlfAttributeContainerEPNS_7IAlfMapEiPS1_ @ 357 NONAME
	_ZN3Alf30AlfAnchorLayoutAttributeSetter17setAttributeValueER10CAlfVisualPNS_21AlfAttributeContainerEPNS_7IAlfMapE @ 358 NONAME
	_ZN3Alf30AlfAnchorLayoutAttributeSetter21createAndSendCommandsER10CAlfVisualPNS_21AlfAttributeContainerEPS1_ @ 359 NONAME
	_ZN3Alf30AlfAnchorLayoutAttributeSetterC1Ev @ 360 NONAME
	_ZN3Alf30AlfAnchorLayoutAttributeSetterC2Ev @ 361 NONAME
	_ZN3Alf30AlfAnchorLayoutAttributeSetterD0Ev @ 362 NONAME
	_ZN3Alf30AlfAnchorLayoutAttributeSetterD1Ev @ 363 NONAME
	_ZN3Alf30AlfAnchorLayoutAttributeSetterD2Ev @ 364 NONAME
	_ZN3Alf30AlfCommonLayoutAttributeSetter13createCommandER10CAlfVisualPNS_21AlfAttributeContainerEPNS_7IAlfMapEiPS1_ @ 365 NONAME
	_ZN3Alf30AlfCommonLayoutAttributeSetter17setAttributeValueER10CAlfVisualPNS_21AlfAttributeContainerEPNS_7IAlfMapE @ 366 NONAME
	_ZN3Alf30AlfCommonLayoutAttributeSetter21createAndSendCommandsER10CAlfVisualPNS_21AlfAttributeContainerEPS1_ @ 367 NONAME
	_ZN3Alf30AlfCommonLayoutAttributeSetterC1Ev @ 368 NONAME
	_ZN3Alf30AlfCommonLayoutAttributeSetterC2Ev @ 369 NONAME
	_ZN3Alf30AlfCommonLayoutAttributeSetterD0Ev @ 370 NONAME
	_ZN3Alf30AlfCommonLayoutAttributeSetterD1Ev @ 371 NONAME
	_ZN3Alf30AlfCommonLayoutAttributeSetterD2Ev @ 372 NONAME
	_ZN3Alf30AlfCommonVisualAttributeSetter13createCommandER10CAlfVisualPNS_21AlfAttributeContainerEPNS_7IAlfMapEiPS1_ @ 373 NONAME
	_ZN3Alf30AlfCommonVisualAttributeSetter21createAndSendCommandsER10CAlfVisualPNS_21AlfAttributeContainerEPS1_ @ 374 NONAME
	_ZN3Alf30AlfCommonVisualAttributeSetterC1Ev @ 375 NONAME
	_ZN3Alf30AlfCommonVisualAttributeSetterC2Ev @ 376 NONAME
	_ZN3Alf30AlfCommonVisualAttributeSetterD0Ev @ 377 NONAME
	_ZN3Alf30AlfCommonVisualAttributeSetterD1Ev @ 378 NONAME
	_ZN3Alf30AlfCommonVisualAttributeSetterD2Ev @ 379 NONAME
	_ZN3Alf32AlfViewportLayoutAttributeSetter13createCommandER10CAlfVisualPNS_21AlfAttributeContainerEPNS_7IAlfMapEiPS1_ @ 380 NONAME
	_ZN3Alf32AlfViewportLayoutAttributeSetter17setAttributeValueER10CAlfVisualPNS_21AlfAttributeContainerEPNS_7IAlfMapE @ 381 NONAME
	_ZN3Alf32AlfViewportLayoutAttributeSetter21createAndSendCommandsER10CAlfVisualPNS_21AlfAttributeContainerEPS1_ @ 382 NONAME
	_ZN3Alf32AlfViewportLayoutAttributeSetterC1Ev @ 383 NONAME
	_ZN3Alf32AlfViewportLayoutAttributeSetterC2Ev @ 384 NONAME
	_ZN3Alf32AlfViewportLayoutAttributeSetterD0Ev @ 385 NONAME
	_ZN3Alf32AlfViewportLayoutAttributeSetterD1Ev @ 386 NONAME
	_ZN3Alf32AlfViewportLayoutAttributeSetterD2Ev @ 387 NONAME
	_ZN3Alf33AlfCurvePathLayoutAttributeSetter13createCommandER10CAlfVisualPNS_21AlfAttributeContainerEPNS_7IAlfMapEiPS1_ @ 388 NONAME
	_ZN3Alf33AlfCurvePathLayoutAttributeSetter17setAttributeValueER10CAlfVisualPNS_21AlfAttributeContainerEPNS_7IAlfMapE @ 389 NONAME
	_ZN3Alf33AlfCurvePathLayoutAttributeSetter21createAndSendCommandsER10CAlfVisualPNS_21AlfAttributeContainerEPS1_ @ 390 NONAME
	_ZN3Alf33AlfCurvePathLayoutAttributeSetterC1Ev @ 391 NONAME
	_ZN3Alf33AlfCurvePathLayoutAttributeSetterC2Ev @ 392 NONAME
	_ZN3Alf33AlfCurvePathLayoutAttributeSetterD0Ev @ 393 NONAME
	_ZN3Alf33AlfCurvePathLayoutAttributeSetterD1Ev @ 394 NONAME
	_ZN3Alf33AlfCurvePathLayoutAttributeSetterD2Ev @ 395 NONAME
	_ZN3Alf6AlfMap10customDataEv @ 396 NONAME
	_ZN3Alf6AlfMap10removeItemERKN7osncore7UStringE @ 397 NONAME
	_ZN3Alf6AlfMap10removeItemEj @ 398 NONAME
	_ZN3Alf6AlfMap11replaceItemERKN7osncore7UStringEPNS_15IAlfVariantTypeE @ 399 NONAME
	_ZN3Alf6AlfMap11replaceItemEjPNS_15IAlfVariantTypeE @ 400 NONAME
	_ZN3Alf6AlfMap3mapEv @ 401 NONAME
	_ZN3Alf6AlfMap3setERNS_15IAlfVariantTypeE @ 402 NONAME
	_ZN3Alf6AlfMap4itemERKN7osncore7UStringE @ 403 NONAME
	_ZN3Alf6AlfMap4itemEj @ 404 NONAME
	_ZN3Alf6AlfMap5clearEv @ 405 NONAME
	_ZN3Alf6AlfMap5cloneEv @ 406 NONAME
	_ZN3Alf6AlfMap6branchEv @ 407 NONAME
	_ZN3Alf6AlfMap9containerEv @ 408 NONAME
	_ZN3Alf6AlfMap9itemIndexERKN7osncore7UStringE @ 409 NONAME
	_ZN3Alf6AlfMapC1Ev @ 410 NONAME
	_ZN3Alf6AlfMapC2Ev @ 411 NONAME
	_ZN3Alf6AlfMapD0Ev @ 412 NONAME
	_ZN3Alf6AlfMapD1Ev @ 413 NONAME
	_ZN3Alf6AlfMapD2Ev @ 414 NONAME
	_ZN3Alf8AlfModel10clearModelEv @ 415 NONAME
	_ZN3Alf8AlfModel10removeDataEiPi @ 416 NONAME
	_ZN3Alf8AlfModel10updateDataEiPiPNS_15IAlfVariantTypeE @ 417 NONAME
	_ZN3Alf8AlfModel13makeInterfaceERKNS_4IfIdE @ 418 NONAME
	_ZN3Alf8AlfModel16executeOperationEPNS_17AlfModelOperationE @ 419 NONAME
	_ZN3Alf8AlfModel17executeOperationsERN7osncore12AlfPtrVectorINS_17AlfModelOperationEEE @ 420 NONAME
	_ZN3Alf8AlfModel18notifyModelChangedEv @ 421 NONAME
	_ZN3Alf8AlfModel22addModelChangeObserverERNS_23IAlfModelChangeObserverE @ 422 NONAME
	_ZN3Alf8AlfModel25removeModelChangeObserverERNS_23IAlfModelChangeObserverE @ 423 NONAME
	_ZN3Alf8AlfModel7addDataEiPiPNS_15IAlfVariantTypeE @ 424 NONAME
	_ZN3Alf8AlfModel7setDataEPNS_15IAlfVariantTypeE @ 425 NONAME
	_ZN3Alf8AlfModelC1EPNS_15IAlfVariantTypeE @ 426 NONAME
	_ZN3Alf8AlfModelC1Ev @ 427 NONAME
	_ZN3Alf8AlfModelC2EPNS_15IAlfVariantTypeE @ 428 NONAME
	_ZN3Alf8AlfModelC2Ev @ 429 NONAME
	_ZN3Alf8AlfModelD0Ev @ 430 NONAME
	_ZN3Alf8AlfModelD1Ev @ 431 NONAME
	_ZN3Alf8AlfModelD2Ev @ 432 NONAME
	_ZN3Alf9AlfBranch10customDataEv @ 433 NONAME
	_ZN3Alf9AlfBranch12setChildDataEPNS_7IAlfMapE @ 434 NONAME
	_ZN3Alf9AlfBranch13childrenCountEv @ 435 NONAME
	_ZN3Alf9AlfBranch3mapEv @ 436 NONAME
	_ZN3Alf9AlfBranch3setERNS_15IAlfVariantTypeE @ 437 NONAME
	_ZN3Alf9AlfBranch4dataEv @ 438 NONAME
	_ZN3Alf9AlfBranch4sortERKNS_16IAlfSortFunctionE @ 439 NONAME
	_ZN3Alf9AlfBranch5cloneEv @ 440 NONAME
	_ZN3Alf9AlfBranch6branchEv @ 441 NONAME
	_ZN3Alf9AlfBranch7setDataEPNS_7IAlfMapE @ 442 NONAME
	_ZN3Alf9AlfBranch9childDataEi @ 443 NONAME
	_ZN3Alf9AlfBranch9childDataEv @ 444 NONAME
	_ZN3Alf9AlfBranch9childNameEi @ 445 NONAME
	_ZN3Alf9AlfBranch9containerEv @ 446 NONAME
	_ZN3Alf9AlfBranchC1EPNS_7IAlfMapES2_ @ 447 NONAME
	_ZN3Alf9AlfBranchC1Ev @ 448 NONAME
	_ZN3Alf9AlfBranchC2EPNS_7IAlfMapES2_ @ 449 NONAME
	_ZN3Alf9AlfBranchC2Ev @ 450 NONAME
	_ZN3Alf9AlfBranchD0Ev @ 451 NONAME
	_ZN3Alf9AlfBranchD1Ev @ 452 NONAME
	_ZN3Alf9AlfBranchD2Ev @ 453 NONAME
	_ZN3Alf9AlfWidget10setControlEPNS_17CAlfWidgetControlEb @ 454 NONAME
	_ZN3Alf9AlfWidget11applyLayoutERNS_17IAlfLayoutManagerE @ 455 NONAME
	_ZN3Alf9AlfWidget12removeWidgetERNS_10IAlfWidgetE @ 456 NONAME
	_ZN3Alf9AlfWidget12removeWidgetEi @ 457 NONAME
	_ZN3Alf9AlfWidget13makeInterfaceEPS0_RKNS_4IfIdE @ 458 NONAME
	_ZN3Alf9AlfWidget13makeInterfaceERKNS_4IfIdE @ 459 NONAME
	_ZN3Alf9AlfWidget13setChildFocusEb @ 460 NONAME
	_ZN3Alf9AlfWidget15setPresentationEPKc @ 461 NONAME
	_ZN3Alf9AlfWidget5modelEv @ 462 NONAME
	_ZN3Alf9AlfWidget8setModelEPNS_9IAlfModelEb @ 463 NONAME
	_ZN3Alf9AlfWidget9addWidgetERNS_10IAlfWidgetE @ 464 NONAME
	_ZN3Alf9AlfWidgetC1EPKc @ 465 NONAME
	_ZN3Alf9AlfWidgetC1EPKcRNS_19IAlfContainerWidgetER7CAlfEnv @ 466 NONAME
	_ZN3Alf9AlfWidgetC1Ev @ 467 NONAME
	_ZN3Alf9AlfWidgetC2EPKc @ 468 NONAME
	_ZN3Alf9AlfWidgetC2EPKcRNS_19IAlfContainerWidgetER7CAlfEnv @ 469 NONAME
	_ZN3Alf9AlfWidgetC2Ev @ 470 NONAME
	_ZN3Alf9AlfWidgetD0Ev @ 471 NONAME
	_ZN3Alf9AlfWidgetD1Ev @ 472 NONAME
	_ZN3Alf9AlfWidgetD2Ev @ 473 NONAME
	_ZNK3Alf10AlfElement13parentElementEv @ 474 NONAME
	_ZNK3Alf10AlfElement17getVisualTemplateEv @ 475 NONAME
	_ZNK3Alf10AlfElement4nameEv @ 476 NONAME
	_ZNK3Alf10AlfElement6dataIDERK10CAlfVisual @ 477 NONAME
	_ZNK3Alf10AlfElement8containsER10CAlfVisual @ 478 NONAME
	_ZNK3Alf12AlfAttribute10isValueSetEv @ 479 NONAME
	_ZNK3Alf12AlfAttribute11stringValueEj @ 480 NONAME
	_ZNK3Alf12AlfAttribute12getDataFieldEv @ 481 NONAME
	_ZNK3Alf12AlfAttribute14getSourceValueEj @ 482 NONAME
	_ZNK3Alf12AlfAttribute14getTargetValueEj @ 483 NONAME
	_ZNK3Alf12AlfAttribute19getSourceValueCountEv @ 484 NONAME
	_ZNK3Alf12AlfAttribute19getTargetValueCountEv @ 485 NONAME
	_ZNK3Alf12AlfAttribute20getMappingFunctionIdEv @ 486 NONAME
	_ZNK3Alf12AlfAttribute21getInterpolationStyleEv @ 487 NONAME
	_ZNK3Alf12AlfAttribute4nameEv @ 488 NONAME
	_ZNK3Alf12AlfAttribute4typeEj @ 489 NONAME
	_ZNK3Alf12AlfAttribute4unitEj @ 490 NONAME
	_ZNK3Alf12AlfAttribute7getTimeEv @ 491 NONAME
	_ZNK3Alf12AlfAttribute7isDirtyEv @ 492 NONAME
	_ZNK3Alf12AlfAttribute8categoryEv @ 493 NONAME
	_ZNK3Alf12AlfAttribute8getDelayEv @ 494 NONAME
	_ZNK3Alf12AlfAttribute8intValueEj @ 495 NONAME
	_ZNK3Alf12AlfAttribute9realValueEj @ 496 NONAME
	_ZNK3Alf12AlfContainer4realEv @ 497 NONAME
	_ZNK3Alf12AlfContainer4typeEv @ 498 NONAME
	_ZNK3Alf12AlfContainer6stringEv @ 499 NONAME
	_ZNK3Alf12AlfContainer7booleanEv @ 500 NONAME
	_ZNK3Alf12AlfContainer7integerEv @ 501 NONAME
	_ZNK3Alf12AlfContainer8uintegerEv @ 502 NONAME
	_ZNK3Alf12AlfContainereqERKNS_15IAlfVariantTypeE @ 503 NONAME
	_ZNK3Alf14AlfVariantType4realEv @ 504 NONAME
	_ZNK3Alf14AlfVariantType4typeEv @ 505 NONAME
	_ZNK3Alf14AlfVariantType6stringEv @ 506 NONAME
	_ZNK3Alf14AlfVariantType7booleanEv @ 507 NONAME
	_ZNK3Alf14AlfVariantType7integerEv @ 508 NONAME
	_ZNK3Alf14AlfVariantType8uintegerEv @ 509 NONAME
	_ZNK3Alf14AlfVariantTypeeqERKNS_15IAlfVariantTypeE @ 510 NONAME
	_ZNK3Alf16AlfLayoutManager10getControlEi @ 511 NONAME
	_ZNK3Alf16AlfLayoutManager20getLayoutPreferencesEPNS_17CAlfWidgetControlE @ 512 NONAME
	_ZNK3Alf16AlfLayoutManager5countEv @ 513 NONAME
	_ZNK3Alf16AlfLayoutManager5ownerEv @ 514 NONAME
	_ZNK3Alf16AlfLayoutManager9getLayoutEv @ 515 NONAME
	_ZNK3Alf17AlfModelOperation10parentDataERNS_15IAlfVariantTypeE @ 516 NONAME
	_ZNK3Alf17AlfModelOperation11newDataNameEv @ 517 NONAME
	_ZNK3Alf17AlfModelOperation14containerIndexEi @ 518 NONAME
	_ZNK3Alf17AlfModelOperation19numContainerIndicesEv @ 519 NONAME
	_ZNK3Alf17AlfModelOperation5indexEv @ 520 NONAME
	_ZNK3Alf17AlfModelOperation7newDataEv @ 521 NONAME
	_ZNK3Alf17AlfModelOperation9operationEv @ 522 NONAME
	_ZNK3Alf17AlfVisualTemplate10layoutTypeEv @ 523 NONAME
	_ZNK3Alf17AlfVisualTemplate10numBrushesEv @ 524 NONAME
	_ZNK3Alf17AlfVisualTemplate10visualTypeEv @ 525 NONAME
	_ZNK3Alf17AlfVisualTemplate13childTemplateEi @ 526 NONAME
	_ZNK3Alf17AlfVisualTemplate15attributeSetterEi @ 527 NONAME
	_ZNK3Alf17AlfVisualTemplate17numChildTemplatesEv @ 528 NONAME
	_ZNK3Alf17AlfVisualTemplate18attributeContainerEi @ 529 NONAME
	_ZNK3Alf17AlfVisualTemplate19numAttributeSettersEv @ 530 NONAME
	_ZNK3Alf17AlfVisualTemplate4nameEv @ 531 NONAME
	_ZNK3Alf17AlfVisualTemplate5brushEi @ 532 NONAME
	_ZNK3Alf17AlfVisualTemplate5ownerEv @ 533 NONAME
	_ZNK3Alf17AlfVisualTemplate6parentEv @ 534 NONAME
	_ZNK3Alf17CAlfWidgetControl10checkStateEj @ 535 NONAME
	_ZNK3Alf17CAlfWidgetControl11isContainerEv @ 536 NONAME
	_ZNK3Alf17CAlfWidgetControl11isFocusableEv @ 537 NONAME
	_ZNK3Alf17CAlfWidgetControl11numElementsEv @ 538 NONAME
	_ZNK3Alf17CAlfWidgetControl15ContainerLayoutEPK11CAlfControl @ 539 NONAME
	_ZNK3Alf17CAlfWidgetControl16numEventHandlersEv @ 540 NONAME
	_ZNK3Alf17CAlfWidgetControl17eventHandlerIndexERNS_22IAlfWidgetEventHandlerE @ 541 NONAME
	_ZNK3Alf17CAlfWidgetControl5stateEv @ 542 NONAME
	_ZNK3Alf21AlfAttributeContainer12getAttributeEj @ 543 NONAME
	_ZNK3Alf21AlfAttributeContainer14attributeCountEv @ 544 NONAME
	_ZNK3Alf21AlfAttributeContainer18getAttributeByNameEPKc @ 545 NONAME
	_ZNK3Alf21AlfAttributeContainer4typeEv @ 546 NONAME
	_ZNK3Alf21AlfAttributeContainer7getTimeEv @ 547 NONAME
	_ZNK3Alf21AlfAttributeValueType11stringValueEv @ 548 NONAME
	_ZNK3Alf21AlfAttributeValueType4typeEv @ 549 NONAME
	_ZNK3Alf21AlfAttributeValueType4unitEv @ 550 NONAME
	_ZNK3Alf21AlfAttributeValueType8intValueEv @ 551 NONAME
	_ZNK3Alf21AlfAttributeValueType8rgbValueEv @ 552 NONAME
	_ZNK3Alf21AlfAttributeValueType9enumValueEv @ 553 NONAME
	_ZNK3Alf21AlfAttributeValueType9realValueEv @ 554 NONAME
	_ZNK3Alf23AlfRecyclingGridElement6acceptERNS_17CAlfWidgetControlERK9TAlfEvent @ 555 NONAME
	_ZNK3Alf6AlfMap4nameEj @ 556 NONAME
	_ZNK3Alf6AlfMap4realEv @ 557 NONAME
	_ZNK3Alf6AlfMap4typeEv @ 558 NONAME
	_ZNK3Alf6AlfMap5countEv @ 559 NONAME
	_ZNK3Alf6AlfMap6stringEv @ 560 NONAME
	_ZNK3Alf6AlfMap7booleanEv @ 561 NONAME
	_ZNK3Alf6AlfMap7integerEv @ 562 NONAME
	_ZNK3Alf6AlfMap8uintegerEv @ 563 NONAME
	_ZNK3Alf8AlfModel4dataEv @ 564 NONAME
	_ZNK3Alf9AlfBranch4realEv @ 565 NONAME
	_ZNK3Alf9AlfBranch4typeEv @ 566 NONAME
	_ZNK3Alf9AlfBranch6stringEv @ 567 NONAME
	_ZNK3Alf9AlfBranch7booleanEv @ 568 NONAME
	_ZNK3Alf9AlfBranch7integerEv @ 569 NONAME
	_ZNK3Alf9AlfBranch8uintegerEv @ 570 NONAME
	_ZNK3Alf9AlfBrancheqERKNS_15IAlfVariantTypeE @ 571 NONAME
	_ZNK3Alf9AlfWidget10widgetNameEv @ 572 NONAME
	_ZNK3Alf9AlfWidget11widgetCountEv @ 573 NONAME
	_ZNK3Alf9AlfWidget14getWidgetIndexERNS_10IAlfWidgetE @ 574 NONAME
	_ZNK3Alf9AlfWidget6parentEv @ 575 NONAME
	_ZNK3Alf9AlfWidget7controlEv @ 576 NONAME
	_ZNK3Alf9AlfWidget9getWidgetEi @ 577 NONAME
	_ZTIN3Alf10AlfElementE @ 578 NONAME ; #<TI>#
	_ZTIN3Alf12AlfAttributeE @ 579 NONAME ; #<TI>#
	_ZTIN3Alf12AlfContainerE @ 580 NONAME ; #<TI>#
	_ZTIN3Alf12AlfEnumValueE @ 581 NONAME ; #<TI>#
	_ZTIN3Alf12AlfRealValueE @ 582 NONAME ; #<TI>#
	_ZTIN3Alf14AlfHostAPIImplE @ 583 NONAME ; #<TI>#
	_ZTIN3Alf14AlfStringValueE @ 584 NONAME ; #<TI>#
	_ZTIN3Alf14AlfVariantTypeE @ 585 NONAME ; #<TI>#
	_ZTIN3Alf16AlfLayoutManagerE @ 586 NONAME ; #<TI>#
	_ZTIN3Alf17AlfVisualTemplateE @ 587 NONAME ; #<TI>#
	_ZTIN3Alf17CAlfWidgetControlE @ 588 NONAME ; #<TI>#
	_ZTIN3Alf20AlfFlowLayoutManagerE @ 589 NONAME ; #<TI>#
	_ZTIN3Alf20AlfGridLayoutManagerE @ 590 NONAME ; #<TI>#
	_ZTIN3Alf20AlfLayoutManagerImplE @ 591 NONAME ; #<TI>#
	_ZTIN3Alf21AlfAttributeValueTypeE @ 592 NONAME ; #<TI>#
	_ZTIN3Alf22AlfAnchorLayoutManagerE @ 593 NONAME ; #<TI>#
	_ZTIN3Alf23AlfFlowLayoutPolicyImplE @ 594 NONAME ; #<TI>#
	_ZTIN3Alf23AlfGridLayoutPolicyImplE @ 595 NONAME ; #<TI>#
	_ZTIN3Alf23AlfRecyclingGridElementE @ 596 NONAME ; #<TI>#
	_ZTIN3Alf24AlfCommonAttributeSetterE @ 597 NONAME ; #<TI>#
	_ZTIN3Alf24AlfGridLayoutManagerImplE @ 598 NONAME ; #<TI>#
	_ZTIN3Alf26AlfAnchorLayoutManagerImplE @ 599 NONAME ; #<TI>#
	_ZTIN3Alf26TAlfWidgetAttributeCommandE @ 600 NONAME ; #<TI>#
	_ZTIN3Alf27AlfWidgetAttributeOwnerImplE @ 601 NONAME ; #<TI>#
	_ZTIN3Alf27AlfWidgetControlEventFilterE @ 602 NONAME ; #<TI>#
	_ZTIN3Alf28AlfDeckLayoutAttributeSetterE @ 603 NONAME ; #<TI>#
	_ZTIN3Alf28AlfElementAttributeOwnerImplE @ 604 NONAME ; #<TI>#
	_ZTIN3Alf28AlfFlowLayoutAttributeSetterE @ 605 NONAME ; #<TI>#
	_ZTIN3Alf28AlfFlowLayoutPreferencesImplE @ 606 NONAME ; #<TI>#
	_ZTIN3Alf28AlfGridLayoutAttributeSetterE @ 607 NONAME ; #<TI>#
	_ZTIN3Alf28AlfLineVisualAttributeSetterE @ 608 NONAME ; #<TI>#
	_ZTIN3Alf28AlfMeshVisualAttributeSetterE @ 609 NONAME ; #<TI>#
	_ZTIN3Alf28AlfTextVisualAttributeSetterE @ 610 NONAME ; #<TI>#
	_ZTIN3Alf29AlfImageVisualAttributeSetterE @ 611 NONAME ; #<TI>#
	_ZTIN3Alf30AlfAnchorLayoutAttributeSetterE @ 612 NONAME ; #<TI>#
	_ZTIN3Alf30AlfCommonLayoutAttributeSetterE @ 613 NONAME ; #<TI>#
	_ZTIN3Alf30AlfCommonVisualAttributeSetterE @ 614 NONAME ; #<TI>#
	_ZTIN3Alf32AlfViewportLayoutAttributeSetterE @ 615 NONAME ; #<TI>#
	_ZTIN3Alf33AlfCurvePathLayoutAttributeSetterE @ 616 NONAME ; #<TI>#
	_ZTIN3Alf6AlfMapE @ 617 NONAME ; #<TI>#
	_ZTIN3Alf8AlfModelE @ 618 NONAME ; #<TI>#
	_ZTIN3Alf9AlfBranchE @ 619 NONAME ; #<TI>#
	_ZTIN3Alf9AlfWidgetE @ 620 NONAME ; #<TI>#
	_ZTVN3Alf10AlfElementE @ 621 NONAME ; #<VT>#
	_ZTVN3Alf12AlfAttributeE @ 622 NONAME ; #<VT>#
	_ZTVN3Alf12AlfContainerE @ 623 NONAME ; #<VT>#
	_ZTVN3Alf12AlfEnumValueE @ 624 NONAME ; #<VT>#
	_ZTVN3Alf12AlfRealValueE @ 625 NONAME ; #<VT>#
	_ZTVN3Alf14AlfHostAPIImplE @ 626 NONAME ; #<VT>#
	_ZTVN3Alf14AlfStringValueE @ 627 NONAME ; #<VT>#
	_ZTVN3Alf14AlfVariantTypeE @ 628 NONAME ; #<VT>#
	_ZTVN3Alf16AlfLayoutManagerE @ 629 NONAME ; #<VT>#
	_ZTVN3Alf17AlfVisualTemplateE @ 630 NONAME ; #<VT>#
	_ZTVN3Alf17CAlfWidgetControlE @ 631 NONAME ; #<VT>#
	_ZTVN3Alf20AlfFlowLayoutManagerE @ 632 NONAME ; #<VT>#
	_ZTVN3Alf20AlfGridLayoutManagerE @ 633 NONAME ; #<VT>#
	_ZTVN3Alf20AlfLayoutManagerImplE @ 634 NONAME ; #<VT>#
	_ZTVN3Alf21AlfAttributeValueTypeE @ 635 NONAME ; #<VT>#
	_ZTVN3Alf22AlfAnchorLayoutManagerE @ 636 NONAME ; #<VT>#
	_ZTVN3Alf23AlfFlowLayoutPolicyImplE @ 637 NONAME ; #<VT>#
	_ZTVN3Alf23AlfGridLayoutPolicyImplE @ 638 NONAME ; #<VT>#
	_ZTVN3Alf23AlfRecyclingGridElementE @ 639 NONAME ; #<VT>#
	_ZTVN3Alf24AlfCommonAttributeSetterE @ 640 NONAME ; #<VT>#
	_ZTVN3Alf24AlfGridLayoutManagerImplE @ 641 NONAME ; #<VT>#
	_ZTVN3Alf26AlfAnchorLayoutManagerImplE @ 642 NONAME ; #<VT>#
	_ZTVN3Alf26TAlfWidgetAttributeCommandE @ 643 NONAME ; #<VT>#
	_ZTVN3Alf27AlfWidgetAttributeOwnerImplE @ 644 NONAME ; #<VT>#
	_ZTVN3Alf27AlfWidgetControlEventFilterE @ 645 NONAME ; #<VT>#
	_ZTVN3Alf28AlfDeckLayoutAttributeSetterE @ 646 NONAME ; #<VT>#
	_ZTVN3Alf28AlfElementAttributeOwnerImplE @ 647 NONAME ; #<VT>#
	_ZTVN3Alf28AlfFlowLayoutAttributeSetterE @ 648 NONAME ; #<VT>#
	_ZTVN3Alf28AlfFlowLayoutPreferencesImplE @ 649 NONAME ; #<VT>#
	_ZTVN3Alf28AlfGridLayoutAttributeSetterE @ 650 NONAME ; #<VT>#
	_ZTVN3Alf28AlfLineVisualAttributeSetterE @ 651 NONAME ; #<VT>#
	_ZTVN3Alf28AlfMeshVisualAttributeSetterE @ 652 NONAME ; #<VT>#
	_ZTVN3Alf28AlfTextVisualAttributeSetterE @ 653 NONAME ; #<VT>#
	_ZTVN3Alf29AlfImageVisualAttributeSetterE @ 654 NONAME ; #<VT>#
	_ZTVN3Alf30AlfAnchorLayoutAttributeSetterE @ 655 NONAME ; #<VT>#
	_ZTVN3Alf30AlfCommonLayoutAttributeSetterE @ 656 NONAME ; #<VT>#
	_ZTVN3Alf30AlfCommonVisualAttributeSetterE @ 657 NONAME ; #<VT>#
	_ZTVN3Alf32AlfViewportLayoutAttributeSetterE @ 658 NONAME ; #<VT>#
	_ZTVN3Alf33AlfCurvePathLayoutAttributeSetterE @ 659 NONAME ; #<VT>#
	_ZTVN3Alf6AlfMapE @ 660 NONAME ; #<VT>#
	_ZTVN3Alf8AlfModelE @ 661 NONAME ; #<VT>#
	_ZTVN3Alf9AlfBranchE @ 662 NONAME ; #<VT>#
	_ZTVN3Alf9AlfWidgetE @ 663 NONAME ; #<VT>#
	_ZThn32_N3Alf17CAlfWidgetControl11OfferEventLERK9TAlfEvent @ 664 NONAME ; #<thunk>#
	_ZThn40_N3Alf17CAlfWidgetControl11dataChangedEv @ 665 NONAME ; #<thunk>#
	_ZThn40_N3Alf17CAlfWidgetControl12dataChangingERKN7osncore12AlfPtrVectorINS_17AlfModelOperationEEE @ 666 NONAME ; #<thunk>#
	_ZThn40_N3Alf17CAlfWidgetControl12dataChangingERKNS_17AlfModelOperationE @ 667 NONAME ; #<thunk>#
	_ZThn40_N3Alf17CAlfWidgetControl12modelChangedERNS_9IAlfModelE @ 668 NONAME ; #<thunk>#
	_ZThn40_N3Alf17CAlfWidgetControlD0Ev @ 669 NONAME ; #<thunk>#
	_ZThn40_N3Alf17CAlfWidgetControlD1Ev @ 670 NONAME ; #<thunk>#
	_ZThn44_N3Alf17CAlfWidgetControl10addElementEPNS_11IAlfElementE @ 671 NONAME ; #<thunk>#
	_ZThn44_N3Alf17CAlfWidgetControl11dataIdRangeERKNS_11IAlfElementE @ 672 NONAME ; #<thunk>#
	_ZThn44_N3Alf17CAlfWidgetControl11elementDataERKNS_11IAlfElementEj @ 673 NONAME ; #<thunk>#
	_ZThn44_N3Alf17CAlfWidgetControl11enableStateEj @ 674 NONAME ; #<thunk>#
	_ZThn44_N3Alf17CAlfWidgetControl11findElementEPKc @ 675 NONAME ; #<thunk>#
	_ZThn44_N3Alf17CAlfWidgetControl11handleEventERK9TAlfEvent @ 676 NONAME ; #<thunk>#
	_ZThn44_N3Alf17CAlfWidgetControl12disableStateEj @ 677 NONAME ; #<thunk>#
	_ZThn44_N3Alf17CAlfWidgetControl12eventHandlerEi @ 678 NONAME ; #<thunk>#
	_ZThn44_N3Alf17CAlfWidgetControl13dataIdToIndexERKNS_11IAlfElementEj @ 679 NONAME ; #<thunk>#
	_ZThn44_N3Alf17CAlfWidgetControl13elementDataIdERKNS_11IAlfElementEjj @ 680 NONAME ; #<thunk>#
	_ZThn44_N3Alf17CAlfWidgetControl13makeInterfaceERKNS_4IfIdE @ 681 NONAME ; #<thunk>#
	_ZThn44_N3Alf17CAlfWidgetControl13removeElementERKNS_11IAlfElementE @ 682 NONAME ; #<thunk>#
	_ZThn44_N3Alf17CAlfWidgetControl14setDataIdRangeERKNS_11IAlfElementEj @ 683 NONAME ; #<thunk>#
	_ZThn44_N3Alf17CAlfWidgetControl15addEventHandlerEPNS_22IAlfWidgetEventHandlerEi @ 684 NONAME ; #<thunk>#
	_ZThn44_N3Alf17CAlfWidgetControl16findEventHandlerERK9TAlfEvent @ 685 NONAME ; #<thunk>#
	_ZThn44_N3Alf17CAlfWidgetControl18removeEventHandlerERNS_22IAlfWidgetEventHandlerE @ 686 NONAME ; #<thunk>#
	_ZThn44_N3Alf17CAlfWidgetControl18updatePresentationEv @ 687 NONAME ; #<thunk>#
	_ZThn44_N3Alf17CAlfWidgetControl19destroyPresentationEi @ 688 NONAME ; #<thunk>#
	_ZThn44_N3Alf17CAlfWidgetControl19parentElementDataIdERKNS_11IAlfElementEj @ 689 NONAME ; #<thunk>#
	_ZThn44_N3Alf17CAlfWidgetControl23removeAndDestroyElementERKNS_11IAlfElementE @ 690 NONAME ; #<thunk>#
	_ZThn44_N3Alf17CAlfWidgetControl25destroyVisualsAndElementsEi @ 691 NONAME ; #<thunk>#
	_ZThn44_N3Alf17CAlfWidgetControl28removeAndDestroyEventHandlerERKN7osncore7UStringE @ 692 NONAME ; #<thunk>#
	_ZThn44_N3Alf17CAlfWidgetControl28removeAndDestroyEventHandlerERNS_22IAlfWidgetEventHandlerE @ 693 NONAME ; #<thunk>#
	_ZThn44_N3Alf17CAlfWidgetControl31removePresentationEventHandlersEv @ 694 NONAME ; #<thunk>#
	_ZThn44_N3Alf17CAlfWidgetControl41removeAndDestroyPresentationEventHandlersEv @ 695 NONAME ; #<thunk>#
	_ZThn44_N3Alf17CAlfWidgetControl6widgetEv @ 696 NONAME ; #<thunk>#
	_ZThn44_N3Alf17CAlfWidgetControl7elementEi @ 697 NONAME ; #<thunk>#
	_ZThn44_N3Alf17CAlfWidgetControl8setStateEj @ 698 NONAME ; #<thunk>#
	_ZThn44_N3Alf17CAlfWidgetControlD0Ev @ 699 NONAME ; #<thunk>#
	_ZThn44_N3Alf17CAlfWidgetControlD1Ev @ 700 NONAME ; #<thunk>#
	_ZThn44_NK3Alf17CAlfWidgetControl10checkStateEj @ 701 NONAME ; #<thunk>#
	_ZThn44_NK3Alf17CAlfWidgetControl11numElementsEv @ 702 NONAME ; #<thunk>#
	_ZThn44_NK3Alf17CAlfWidgetControl16numEventHandlersEv @ 703 NONAME ; #<thunk>#
	_ZThn44_NK3Alf17CAlfWidgetControl17eventHandlerIndexERNS_22IAlfWidgetEventHandlerE @ 704 NONAME ; #<thunk>#
	_ZThn44_NK3Alf17CAlfWidgetControl5stateEv @ 705 NONAME ; #<thunk>#
	_ZThn8_N3Alf23AlfRecyclingGridElement10offerEventERNS_17CAlfWidgetControlERK9TAlfEvent @ 706 NONAME ; #<thunk>#
	_ZThn8_N3Alf23AlfRecyclingGridElement13makeInterfaceERKNS_4IfIdE @ 707 NONAME ; #<thunk>#
	_ZThn8_N3Alf23AlfRecyclingGridElement15setActiveStatesEj @ 708 NONAME ; #<thunk>#
	_ZThn8_N3Alf23AlfRecyclingGridElement16eventHandlerDataEv @ 709 NONAME ; #<thunk>#
	_ZThn8_N3Alf23AlfRecyclingGridElement19setEventHandlerDataERKNS_29AlfWidgetEventHandlerInitDataE @ 710 NONAME ; #<thunk>#
	_ZThn8_N3Alf23AlfRecyclingGridElementD0Ev @ 711 NONAME ; #<thunk>#
	_ZThn8_N3Alf23AlfRecyclingGridElementD1Ev @ 712 NONAME ; #<thunk>#
	_ZThn8_NK3Alf23AlfRecyclingGridElement6acceptERNS_17CAlfWidgetControlERK9TAlfEvent @ 713 NONAME ; #<thunk>#

