EXPORTS
	_ZN3Alf11MulDataPath6AppendEi @ 1 NONAME
	_ZN3Alf11MulDataPathC1ERKS0_ @ 2 NONAME
	_ZN3Alf11MulDataPathC1Ei @ 3 NONAME
	_ZN3Alf11MulDataPathC1Eii @ 4 NONAME
	_ZN3Alf11MulDataPathC1Ev @ 5 NONAME
	_ZN3Alf11MulDataPathC2ERKS0_ @ 6 NONAME
	_ZN3Alf11MulDataPathC2Ei @ 7 NONAME
	_ZN3Alf11MulDataPathC2Eii @ 8 NONAME
	_ZN3Alf11MulDataPathC2Ev @ 9 NONAME
	_ZN3Alf11MulDataPathD1Ev @ 10 NONAME
	_ZN3Alf11MulDataPathD2Ev @ 11 NONAME
	_ZN3Alf12MulModelImplC1Ev @ 12 NONAME
	_ZN3Alf12MulModelImplC2Ev @ 13 NONAME
	_ZN3Alf12MulModelImplD0Ev @ 14 NONAME
	_ZN3Alf12MulModelImplD1Ev @ 15 NONAME
	_ZN3Alf12MulModelImplD2Ev @ 16 NONAME
	_ZN3Alf13MulVisualItem12SetAttributeENS_13mulvisualitem16TVisualAttributeEPNS_15IMulVariantTypeEiNS0_19TAttributeOwnershipE @ 17 NONAME
	_ZN3Alf13MulVisualItem12SetAttributeENS_13mulvisualitem16TVisualAttributeERK7TDesC16i @ 18 NONAME
	_ZN3Alf13MulVisualItem12SetAttributeENS_13mulvisualitem16TVisualAttributeEii @ 19 NONAME
	_ZN3Alf13MulVisualItemC1ERKS0_ @ 20 NONAME
	_ZN3Alf13MulVisualItemC1Ev @ 21 NONAME
	_ZN3Alf13MulVisualItemC2ERKS0_ @ 22 NONAME
	_ZN3Alf13MulVisualItemC2Ev @ 23 NONAME
	_ZN3Alf13MulVisualItemD1Ev @ 24 NONAME
	_ZN3Alf13MulVisualItemD2Ev @ 25 NONAME
	_ZNK3Alf11MulDataPath5DepthEv @ 26 NONAME
	_ZNK3Alf11MulDataPathixEi @ 27 NONAME
	_ZNK3Alf13MulVisualItem10AttributesEv @ 28 NONAME
	_ZNK3Alf13MulVisualItem14AttributeAsIntENS_13mulvisualitem16TVisualAttributeE @ 29 NONAME
	_ZNK3Alf13MulVisualItem17AttributeAsStringENS_13mulvisualitem16TVisualAttributeE @ 30 NONAME
	_ZNK3Alf13MulVisualItem7IsDirtyENS_13mulvisualitem16TVisualAttributeE @ 31 NONAME
	_ZNK3Alf13MulVisualItem9AttributeENS_13mulvisualitem16TVisualAttributeE @ 32 NONAME
	_ZTIN3Alf11MulPullModeE @ 33 NONAME ; #<TI>#
	_ZTIN3Alf11MulPushModeE @ 34 NONAME ; #<TI>#
	_ZTIN3Alf12MulModelImplE @ 35 NONAME ; #<TI>#
	_ZTIN3Alf20MulAsyncDataProviderE @ 36 NONAME ; #<TI>#
	_ZTVN3Alf11MulPullModeE @ 37 NONAME ; #<VT>#
	_ZTVN3Alf11MulPushModeE @ 38 NONAME ; #<VT>#
	_ZTVN3Alf12MulModelImplE @ 39 NONAME ; #<VT>#
	_ZTVN3Alf20MulAsyncDataProviderE @ 40 NONAME ; #<VT>#
	_ZThn4_N3Alf12MulModelImplD0Ev @ 41 NONAME ; #<thunk>#
	_ZThn4_N3Alf12MulModelImplD1Ev @ 42 NONAME ; #<thunk>#
	_ZThn8_N3Alf12MulModelImplD0Ev @ 43 NONAME ; #<thunk>#
	_ZThn8_N3Alf12MulModelImplD1Ev @ 44 NONAME ; #<thunk>#

