EXPORTS
	_ZN3Alf11MulDataPath6AppendEi @ 1 NONAME
	_ZN3Alf11MulDataPathC1ERKS0_ @ 2 NONAME
	_ZN3Alf11MulDataPathC1Ei @ 3 NONAME
	_ZN3Alf11MulDataPathC1Eii @ 4 NONAME
	_ZN3Alf11MulDataPathC1Ev @ 5 NONAME
	_ZN3Alf11MulDataPathC2ERKS0_ @ 6 NONAME
	_ZN3Alf11MulDataPathC2Ei @ 7 NONAME
	_ZN3Alf11MulDataPathC2Eii @ 8 NONAME
	_ZN3Alf11MulDataPathC2Ev @ 9 NONAME
	_ZN3Alf11MulDataPathD1Ev @ 10 NONAME
	_ZN3Alf11MulDataPathD2Ev @ 11 NONAME
	_ZN3Alf13MulVisualItem12SetAttributeENS_13mulvisualitem16TVisualAttributeEPNS_15IMulVariantTypeEiNS0_19TAttributeOwnershipE @ 12 NONAME
	_ZN3Alf13MulVisualItem12SetAttributeENS_13mulvisualitem16TVisualAttributeERK7TDesC16i @ 13 NONAME
	_ZN3Alf13MulVisualItem12SetAttributeENS_13mulvisualitem16TVisualAttributeEii @ 14 NONAME
	_ZN3Alf13MulVisualItemC1ERKS0_ @ 15 NONAME
	_ZN3Alf13MulVisualItemC1Ev @ 16 NONAME
	_ZN3Alf13MulVisualItemC2ERKS0_ @ 17 NONAME
	_ZN3Alf13MulVisualItemC2Ev @ 18 NONAME
	_ZN3Alf13MulVisualItemD1Ev @ 19 NONAME
	_ZN3Alf13MulVisualItemD2Ev @ 20 NONAME
	_ZN3Alf14MulVariantType5CloneEv @ 21 NONAME
	_ZN3Alf14MulVariantTypeC1ERK7TDesC16 @ 22 NONAME
	_ZN3Alf14MulVariantTypeC1ERKb @ 23 NONAME
	_ZN3Alf14MulVariantTypeC1ERKd @ 24 NONAME
	_ZN3Alf14MulVariantTypeC1ERKi @ 25 NONAME
	_ZN3Alf14MulVariantTypeC1ERKj @ 26 NONAME
	_ZN3Alf14MulVariantTypeC1ERNS_7IAlfMapE @ 27 NONAME
	_ZN3Alf14MulVariantTypeC1Ev @ 28 NONAME
	_ZN3Alf14MulVariantTypeC2ERK7TDesC16 @ 29 NONAME
	_ZN3Alf14MulVariantTypeC2ERKb @ 30 NONAME
	_ZN3Alf14MulVariantTypeC2ERKd @ 31 NONAME
	_ZN3Alf14MulVariantTypeC2ERKi @ 32 NONAME
	_ZN3Alf14MulVariantTypeC2ERKj @ 33 NONAME
	_ZN3Alf14MulVariantTypeC2ERNS_7IAlfMapE @ 34 NONAME
	_ZN3Alf14MulVariantTypeC2Ev @ 35 NONAME
	_ZN3Alf14MulVariantTypeD0Ev @ 36 NONAME
	_ZN3Alf14MulVariantTypeD1Ev @ 37 NONAME
	_ZN3Alf14MulVariantTypeD2Ev @ 38 NONAME
	_ZN3Alf15MulModelUtility12IntToUStringEi @ 39 NONAME
	_ZN3Alf15MulModelUtility16CreateVisualItemENS_9mulwidget16TLogicalTemplateE @ 40 NONAME
	_ZN3Alf15MulModelUtility17CreateVariantTypeERNS_15IAlfVariantTypeE @ 41 NONAME
	_ZN3Alf15MulModelUtility18AlfStringToUStringERKN7osncore7UStringE @ 42 NONAME
	_ZN3Alf15MulModelUtility18UStringToAlfStringERKN7osncore7UStringE @ 43 NONAME
	_ZN3Alf15MulModelUtility20ConvertTDesToUStringERK7TDesC16RN7osncore7UStringE @ 44 NONAME
	_ZN3Alf15MulModelUtility20ConvertUStringToTDesERKN7osncore7UStringER6TDes16 @ 45 NONAME
	_ZN3Alf15MulModelUtility21ConvertTDes8ToUStringERK6TDesC8RN7osncore7UStringE @ 46 NONAME
	_ZN3Alf15MulModelUtility21ConvertUStringToTDes8ERKN7osncore7UStringER5TDes8 @ 47 NONAME
	_ZN3Alf15MulModelUtility22ConvertMapToVisualItemERNS_7IAlfMapE @ 48 NONAME
	_ZN3Alf15MulModelUtility22ConvertVisualItemToMapERNS_13MulVisualItemE @ 49 NONAME
	_ZNK3Alf11MulDataPath5DepthEv @ 50 NONAME
	_ZNK3Alf11MulDataPathixEi @ 51 NONAME
	_ZNK3Alf13MulVisualItem10AttributesEv @ 52 NONAME
	_ZNK3Alf13MulVisualItem14AttributeAsIntENS_13mulvisualitem16TVisualAttributeE @ 53 NONAME
	_ZNK3Alf13MulVisualItem17AttributeAsStringENS_13mulvisualitem16TVisualAttributeE @ 54 NONAME
	_ZNK3Alf13MulVisualItem7IsDirtyENS_13mulvisualitem16TVisualAttributeE @ 55 NONAME
	_ZNK3Alf13MulVisualItem9AttributeENS_13mulvisualitem16TVisualAttributeE @ 56 NONAME
	_ZNK3Alf14MulVariantType3MapEv @ 57 NONAME
	_ZNK3Alf14MulVariantType4DesCEv @ 58 NONAME
	_ZNK3Alf14MulVariantType4TypeEv @ 59 NONAME
	_ZNK3Alf14MulVariantType4realEv @ 60 NONAME
	_ZNK3Alf14MulVariantType7booleanEv @ 61 NONAME
	_ZNK3Alf14MulVariantType7integerEv @ 62 NONAME
	_ZNK3Alf14MulVariantType8uintegerEv @ 63 NONAME
	_ZTIN3Alf14MulVariantTypeE @ 64 NONAME ; #<TI>#
	_ZTVN3Alf14MulVariantTypeE @ 65 NONAME ; #<VT>#

